SF:C:\github\mcpx\src\cli\commands.rs
FN:11,_RNCNvMNtNtCse561JCZuupE_2vx3cli8commandsNtB4_14CommandHandler6handle0B8_
FN:11,_RNvMNtNtCse561JCZuupE_2vx3cli8commandsNtB2_14CommandHandler6handle
FN:11,_RNCNvMNtNtCs8vv7mWF5ug8_2vx3cli8commandsNtB4_14CommandHandler6handle0CsgEqbR8KZSOZ_2vx
FN:11,_RNvMNtNtCs8vv7mWF5ug8_2vx3cli8commandsNtB2_14CommandHandler6handle
FNDA:0,_RNCNvMNtNtCse561JCZuupE_2vx3cli8commandsNtB4_14CommandHandler6handle0B8_
FNDA:0,_RNvMNtNtCse561JCZuupE_2vx3cli8commandsNtB2_14CommandHandler6handle
FNDA:0,_RNCNvMNtNtCs8vv7mWF5ug8_2vx3cli8commandsNtB4_14CommandHandler6handle0CsgEqbR8KZSOZ_2vx
FNDA:0,_RNvMNtNtCs8vv7mWF5ug8_2vx3cli8commandsNtB2_14CommandHandler6handle
FNF:2
FNH:0
DA:11,0
DA:12,0
DA:13,0
DA:15,0
DA:16,0
DA:18,0
DA:21,0
DA:22,0
DA:23,0
DA:24,0
DA:26,0
DA:27,0
DA:31,0
DA:32,0
DA:33,0
DA:34,0
DA:36,0
DA:39,0
DA:40,0
DA:41,0
DA:42,0
DA:43,0
DA:44,0
DA:46,0
DA:49,0
DA:50,0
DA:51,0
DA:53,0
DA:55,0
DA:57,0
DA:59,0
DA:61,0
DA:63,0
DA:64,0
DA:65,0
DA:70,0
DA:71,0
DA:72,0
DA:73,0
DA:74,0
DA:75,0
DA:76,0
DA:77,0
DA:78,0
DA:79,0
DA:82,0
DA:83,0
DA:84,0
DA:85,0
DA:86,0
DA:87,0
DA:88,0
DA:91,0
BRF:0
BRH:0
LF:54
LH:0
end_of_record
SF:C:\github\mcpx\src\cli\config.rs
FN:36,_RNCNCNvNtNtCse561JCZuupE_2vx3cli6config11show_config00B9_
FN:56,_RNCNvNtNtCse561JCZuupE_2vx3cli6config10get_config0B7_
FN:51,_RNCNvNtNtCse561JCZuupE_2vx3cli6config10set_config0B7_
FN:66,_RNCNvNtNtCse561JCZuupE_2vx3cli6config11edit_config0B7_
FN:17,_RNCNvNtNtCse561JCZuupE_2vx3cli6config11handle_init0B7_
FN:33,_RNCNvNtNtCse561JCZuupE_2vx3cli6config11show_config0B7_
FN:61,_RNCNvNtNtCse561JCZuupE_2vx3cli6config12reset_config0B7_
FN:7,_RNCNvNtNtCse561JCZuupE_2vx3cli6config6handle0B7_
FN:56,_RNvNtNtCse561JCZuupE_2vx3cli6config10get_config
FN:51,_RNvNtNtCse561JCZuupE_2vx3cli6config10set_config
FN:66,_RNvNtNtCse561JCZuupE_2vx3cli6config11edit_config
FN:17,_RNvNtNtCse561JCZuupE_2vx3cli6config11handle_init
FN:33,_RNvNtNtCse561JCZuupE_2vx3cli6config11show_config
FN:61,_RNvNtNtCse561JCZuupE_2vx3cli6config12reset_config
FN:71,_RNvNtNtCse561JCZuupE_2vx3cli6config23generate_default_config
FN:87,_RNvNtNtCse561JCZuupE_2vx3cli6config24generate_template_config
FN:7,_RNvNtNtCse561JCZuupE_2vx3cli6config6handle
FN:36,_RNCNCNvNtNtCs8vv7mWF5ug8_2vx3cli6config11show_config00CsgEqbR8KZSOZ_2vx
FN:56,_RNCNvNtNtCs8vv7mWF5ug8_2vx3cli6config10get_config0CsgEqbR8KZSOZ_2vx
FN:51,_RNCNvNtNtCs8vv7mWF5ug8_2vx3cli6config10set_config0CsgEqbR8KZSOZ_2vx
FN:66,_RNCNvNtNtCs8vv7mWF5ug8_2vx3cli6config11edit_config0CsgEqbR8KZSOZ_2vx
FN:17,_RNCNvNtNtCs8vv7mWF5ug8_2vx3cli6config11handle_init0CsgEqbR8KZSOZ_2vx
FN:33,_RNCNvNtNtCs8vv7mWF5ug8_2vx3cli6config11show_config0CsgEqbR8KZSOZ_2vx
FN:61,_RNCNvNtNtCs8vv7mWF5ug8_2vx3cli6config12reset_config0CsgEqbR8KZSOZ_2vx
FN:7,_RNCNvNtNtCs8vv7mWF5ug8_2vx3cli6config6handle0CsgEqbR8KZSOZ_2vx
FN:56,_RNvNtNtCs8vv7mWF5ug8_2vx3cli6config10get_config
FN:51,_RNvNtNtCs8vv7mWF5ug8_2vx3cli6config10set_config
FN:66,_RNvNtNtCs8vv7mWF5ug8_2vx3cli6config11edit_config
FN:17,_RNvNtNtCs8vv7mWF5ug8_2vx3cli6config11handle_init
FN:33,_RNvNtNtCs8vv7mWF5ug8_2vx3cli6config11show_config
FN:61,_RNvNtNtCs8vv7mWF5ug8_2vx3cli6config12reset_config
FN:71,_RNvNtNtCs8vv7mWF5ug8_2vx3cli6config23generate_default_config
FN:87,_RNvNtNtCs8vv7mWF5ug8_2vx3cli6config24generate_template_config
FN:7,_RNvNtNtCs8vv7mWF5ug8_2vx3cli6config6handle
FNDA:0,_RNCNCNvNtNtCse561JCZuupE_2vx3cli6config11show_config00B9_
FNDA:0,_RNCNvNtNtCse561JCZuupE_2vx3cli6config10get_config0B7_
FNDA:0,_RNCNvNtNtCse561JCZuupE_2vx3cli6config10set_config0B7_
FNDA:0,_RNCNvNtNtCse561JCZuupE_2vx3cli6config11edit_config0B7_
FNDA:0,_RNCNvNtNtCse561JCZuupE_2vx3cli6config11handle_init0B7_
FNDA:0,_RNCNvNtNtCse561JCZuupE_2vx3cli6config11show_config0B7_
FNDA:0,_RNCNvNtNtCse561JCZuupE_2vx3cli6config12reset_config0B7_
FNDA:0,_RNCNvNtNtCse561JCZuupE_2vx3cli6config6handle0B7_
FNDA:0,_RNvNtNtCse561JCZuupE_2vx3cli6config10get_config
FNDA:0,_RNvNtNtCse561JCZuupE_2vx3cli6config10set_config
FNDA:0,_RNvNtNtCse561JCZuupE_2vx3cli6config11edit_config
FNDA:0,_RNvNtNtCse561JCZuupE_2vx3cli6config11handle_init
FNDA:0,_RNvNtNtCse561JCZuupE_2vx3cli6config11show_config
FNDA:0,_RNvNtNtCse561JCZuupE_2vx3cli6config12reset_config
FNDA:0,_RNvNtNtCse561JCZuupE_2vx3cli6config23generate_default_config
FNDA:0,_RNvNtNtCse561JCZuupE_2vx3cli6config24generate_template_config
FNDA:0,_RNvNtNtCse561JCZuupE_2vx3cli6config6handle
FNDA:0,_RNCNCNvNtNtCs8vv7mWF5ug8_2vx3cli6config11show_config00CsgEqbR8KZSOZ_2vx
FNDA:0,_RNCNvNtNtCs8vv7mWF5ug8_2vx3cli6config10get_config0CsgEqbR8KZSOZ_2vx
FNDA:0,_RNCNvNtNtCs8vv7mWF5ug8_2vx3cli6config10set_config0CsgEqbR8KZSOZ_2vx
FNDA:0,_RNCNvNtNtCs8vv7mWF5ug8_2vx3cli6config11edit_config0CsgEqbR8KZSOZ_2vx
FNDA:0,_RNCNvNtNtCs8vv7mWF5ug8_2vx3cli6config11handle_init0CsgEqbR8KZSOZ_2vx
FNDA:0,_RNCNvNtNtCs8vv7mWF5ug8_2vx3cli6config11show_config0CsgEqbR8KZSOZ_2vx
FNDA:0,_RNCNvNtNtCs8vv7mWF5ug8_2vx3cli6config12reset_config0CsgEqbR8KZSOZ_2vx
FNDA:0,_RNCNvNtNtCs8vv7mWF5ug8_2vx3cli6config6handle0CsgEqbR8KZSOZ_2vx
FNDA:0,_RNvNtNtCs8vv7mWF5ug8_2vx3cli6config10get_config
FNDA:0,_RNvNtNtCs8vv7mWF5ug8_2vx3cli6config10set_config
FNDA:0,_RNvNtNtCs8vv7mWF5ug8_2vx3cli6config11edit_config
FNDA:0,_RNvNtNtCs8vv7mWF5ug8_2vx3cli6config11handle_init
FNDA:0,_RNvNtNtCs8vv7mWF5ug8_2vx3cli6config11show_config
FNDA:0,_RNvNtNtCs8vv7mWF5ug8_2vx3cli6config12reset_config
FNDA:0,_RNvNtNtCs8vv7mWF5ug8_2vx3cli6config23generate_default_config
FNDA:0,_RNvNtNtCs8vv7mWF5ug8_2vx3cli6config24generate_template_config
FNDA:0,_RNvNtNtCs8vv7mWF5ug8_2vx3cli6config6handle
FNF:17
FNH:0
DA:7,0
DA:8,0
DA:9,0
DA:10,0
DA:11,0
DA:12,0
DA:13,0
DA:15,0
DA:17,0
DA:18,0
DA:20,0
DA:21,0
DA:23,0
DA:26,0
DA:27,0
DA:28,0
DA:29,0
DA:30,0
DA:31,0
DA:33,0
DA:34,0
DA:35,0
DA:36,0
DA:37,0
DA:38,0
DA:39,0
DA:40,0
DA:41,0
DA:43,0
DA:44,0
DA:45,0
DA:46,0
DA:48,0
DA:49,0
DA:51,0
DA:52,0
DA:53,0
DA:54,0
DA:56,0
DA:57,0
DA:58,0
DA:59,0
DA:61,0
DA:62,0
DA:63,0
DA:64,0
DA:66,0
DA:67,0
DA:68,0
DA:69,0
DA:71,0
DA:72,0
DA:73,0
DA:74,0
DA:75,0
DA:76,0
DA:77,0
DA:78,0
DA:79,0
DA:80,0
DA:81,0
DA:84,0
DA:85,0
DA:87,0
DA:88,0
DA:89,0
DA:90,0
DA:91,0
DA:92,0
DA:93,0
DA:94,0
DA:95,0
DA:96,0
DA:97,0
DA:98,0
DA:99,0
DA:100,0
DA:101,0
DA:102,0
DA:103,0
DA:104,0
DA:105,0
DA:106,0
DA:108,0
DA:112,0
DA:113,0
DA:114,0
DA:116,0
DA:117,0
BRF:0
BRH:0
LF:97
LH:0
end_of_record
SF:C:\github\mcpx\src\cli\fetch.rs
FN:54,_RNCNCNCNCNCNvNtNtCse561JCZuupE_2vx3cli5fetch6handle00s_000Bf_
FN:49,_RNCNCNCNCNvNtNtCse561JCZuupE_2vx3cli5fetch6handle00s_00Bd_
FN:217,_RNCNCNCNvNtNtCse561JCZuupE_2vx3cli5fetch28handle_interactive_selection000Bb_
FN:396,_RNCNCNvNtNtCse561JCZuupE_2vx3cli5fetch17fetch_uv_versions00B9_
FN:398,_RNCNCNvNtNtCse561JCZuupE_2vx3cli5fetch17fetch_uv_versions0s_0B9_
FN:165,_RNCNCNvNtNtCse561JCZuupE_2vx3cli5fetch21display_versions_list00B9_
FN:206,_RNCNCNvNtNtCse561JCZuupE_2vx3cli5fetch28handle_interactive_selection00B9_
FN:441,_RNCNvNtNtCse561JCZuupE_2vx3cli5fetch17fetch_go_versions0B7_
FN:370,_RNCNvNtNtCse561JCZuupE_2vx3cli5fetch17fetch_uv_versions0B7_
FN:343,_RNCNvNtNtCse561JCZuupE_2vx3cli5fetch18get_active_version0B7_
FN:420,_RNCNvNtNtCse561JCZuupE_2vx3cli5fetch19fetch_node_versions0B7_
FN:462,_RNCNvNtNtCse561JCZuupE_2vx3cli5fetch19fetch_rust_versions0B7_
FN:321,_RNCNvNtNtCse561JCZuupE_2vx3cli5fetch19fetch_tool_versions0B7_
FN:90,_RNCNvNtNtCse561JCZuupE_2vx3cli5fetch21display_versions_list0B7_
FN:483,_RNCNvNtNtCse561JCZuupE_2vx3cli5fetch21fetch_python_versions0B7_
FN:198,_RNCNvNtNtCse561JCZuupE_2vx3cli5fetch28handle_interactive_selection0B7_
FN:17,_RNCNvNtNtCse561JCZuupE_2vx3cli5fetch6handle0B7_
FN:441,_RNvNtNtCse561JCZuupE_2vx3cli5fetch17fetch_go_versions
FN:370,_RNvNtNtCse561JCZuupE_2vx3cli5fetch17fetch_uv_versions
FN:343,_RNvNtNtCse561JCZuupE_2vx3cli5fetch18get_active_version
FN:420,_RNvNtNtCse561JCZuupE_2vx3cli5fetch19fetch_node_versions
FN:462,_RNvNtNtCse561JCZuupE_2vx3cli5fetch19fetch_rust_versions
FN:321,_RNvNtNtCse561JCZuupE_2vx3cli5fetch19fetch_tool_versions
FN:84,_RNvNtNtCse561JCZuupE_2vx3cli5fetch21display_versions_list
FN:483,_RNvNtNtCse561JCZuupE_2vx3cli5fetch21fetch_python_versions
FN:193,_RNvNtNtCse561JCZuupE_2vx3cli5fetch28handle_interactive_selection
FN:11,_RNvNtNtCse561JCZuupE_2vx3cli5fetch6handle
FN:54,_RNCNCNCNCNCNvNtNtCs8vv7mWF5ug8_2vx3cli5fetch6handle00s_000CsgEqbR8KZSOZ_2vx
FN:217,_RNCNCNCNvNtNtCs8vv7mWF5ug8_2vx3cli5fetch28handle_interactive_selection000CsgEqbR8KZSOZ_2vx
FN:206,_RNCNCNvNtNtCs8vv7mWF5ug8_2vx3cli5fetch28handle_interactive_selection00CsgEqbR8KZSOZ_2vx
FN:49,_RNCNCNCNCNvNtNtCs8vv7mWF5ug8_2vx3cli5fetch6handle00s_00CsgEqbR8KZSOZ_2vx
FN:396,_RNCNCNvNtNtCs8vv7mWF5ug8_2vx3cli5fetch17fetch_uv_versions00CsgEqbR8KZSOZ_2vx
FN:398,_RNCNCNvNtNtCs8vv7mWF5ug8_2vx3cli5fetch17fetch_uv_versions0s_0CsgEqbR8KZSOZ_2vx
FN:165,_RNCNCNvNtNtCs8vv7mWF5ug8_2vx3cli5fetch21display_versions_list00CsgEqbR8KZSOZ_2vx
FN:441,_RNCNvNtNtCs8vv7mWF5ug8_2vx3cli5fetch17fetch_go_versions0CsgEqbR8KZSOZ_2vx
FN:370,_RNCNvNtNtCs8vv7mWF5ug8_2vx3cli5fetch17fetch_uv_versions0CsgEqbR8KZSOZ_2vx
FN:343,_RNCNvNtNtCs8vv7mWF5ug8_2vx3cli5fetch18get_active_version0CsgEqbR8KZSOZ_2vx
FN:420,_RNCNvNtNtCs8vv7mWF5ug8_2vx3cli5fetch19fetch_node_versions0CsgEqbR8KZSOZ_2vx
FN:462,_RNCNvNtNtCs8vv7mWF5ug8_2vx3cli5fetch19fetch_rust_versions0CsgEqbR8KZSOZ_2vx
FN:321,_RNCNvNtNtCs8vv7mWF5ug8_2vx3cli5fetch19fetch_tool_versions0CsgEqbR8KZSOZ_2vx
FN:90,_RNCNvNtNtCs8vv7mWF5ug8_2vx3cli5fetch21display_versions_list0CsgEqbR8KZSOZ_2vx
FN:483,_RNCNvNtNtCs8vv7mWF5ug8_2vx3cli5fetch21fetch_python_versions0CsgEqbR8KZSOZ_2vx
FN:198,_RNCNvNtNtCs8vv7mWF5ug8_2vx3cli5fetch28handle_interactive_selection0CsgEqbR8KZSOZ_2vx
FN:17,_RNCNvNtNtCs8vv7mWF5ug8_2vx3cli5fetch6handle0CsgEqbR8KZSOZ_2vx
FN:441,_RNvNtNtCs8vv7mWF5ug8_2vx3cli5fetch17fetch_go_versions
FN:370,_RNvNtNtCs8vv7mWF5ug8_2vx3cli5fetch17fetch_uv_versions
FN:343,_RNvNtNtCs8vv7mWF5ug8_2vx3cli5fetch18get_active_version
FN:420,_RNvNtNtCs8vv7mWF5ug8_2vx3cli5fetch19fetch_node_versions
FN:462,_RNvNtNtCs8vv7mWF5ug8_2vx3cli5fetch19fetch_rust_versions
FN:321,_RNvNtNtCs8vv7mWF5ug8_2vx3cli5fetch19fetch_tool_versions
FN:84,_RNvNtNtCs8vv7mWF5ug8_2vx3cli5fetch21display_versions_list
FN:483,_RNvNtNtCs8vv7mWF5ug8_2vx3cli5fetch21fetch_python_versions
FN:193,_RNvNtNtCs8vv7mWF5ug8_2vx3cli5fetch28handle_interactive_selection
FN:11,_RNvNtNtCs8vv7mWF5ug8_2vx3cli5fetch6handle
FNDA:0,_RNCNCNCNCNCNvNtNtCse561JCZuupE_2vx3cli5fetch6handle00s_000Bf_
FNDA:0,_RNCNCNCNCNvNtNtCse561JCZuupE_2vx3cli5fetch6handle00s_00Bd_
FNDA:0,_RNCNCNCNvNtNtCse561JCZuupE_2vx3cli5fetch28handle_interactive_selection000Bb_
FNDA:0,_RNCNCNvNtNtCse561JCZuupE_2vx3cli5fetch17fetch_uv_versions00B9_
FNDA:0,_RNCNCNvNtNtCse561JCZuupE_2vx3cli5fetch17fetch_uv_versions0s_0B9_
FNDA:0,_RNCNCNvNtNtCse561JCZuupE_2vx3cli5fetch21display_versions_list00B9_
FNDA:0,_RNCNCNvNtNtCse561JCZuupE_2vx3cli5fetch28handle_interactive_selection00B9_
FNDA:0,_RNCNvNtNtCse561JCZuupE_2vx3cli5fetch17fetch_go_versions0B7_
FNDA:0,_RNCNvNtNtCse561JCZuupE_2vx3cli5fetch17fetch_uv_versions0B7_
FNDA:0,_RNCNvNtNtCse561JCZuupE_2vx3cli5fetch18get_active_version0B7_
FNDA:0,_RNCNvNtNtCse561JCZuupE_2vx3cli5fetch19fetch_node_versions0B7_
FNDA:0,_RNCNvNtNtCse561JCZuupE_2vx3cli5fetch19fetch_rust_versions0B7_
FNDA:0,_RNCNvNtNtCse561JCZuupE_2vx3cli5fetch19fetch_tool_versions0B7_
FNDA:0,_RNCNvNtNtCse561JCZuupE_2vx3cli5fetch21display_versions_list0B7_
FNDA:0,_RNCNvNtNtCse561JCZuupE_2vx3cli5fetch21fetch_python_versions0B7_
FNDA:0,_RNCNvNtNtCse561JCZuupE_2vx3cli5fetch28handle_interactive_selection0B7_
FNDA:0,_RNCNvNtNtCse561JCZuupE_2vx3cli5fetch6handle0B7_
FNDA:0,_RNvNtNtCse561JCZuupE_2vx3cli5fetch17fetch_go_versions
FNDA:0,_RNvNtNtCse561JCZuupE_2vx3cli5fetch17fetch_uv_versions
FNDA:0,_RNvNtNtCse561JCZuupE_2vx3cli5fetch18get_active_version
FNDA:0,_RNvNtNtCse561JCZuupE_2vx3cli5fetch19fetch_node_versions
FNDA:0,_RNvNtNtCse561JCZuupE_2vx3cli5fetch19fetch_rust_versions
FNDA:0,_RNvNtNtCse561JCZuupE_2vx3cli5fetch19fetch_tool_versions
FNDA:0,_RNvNtNtCse561JCZuupE_2vx3cli5fetch21display_versions_list
FNDA:0,_RNvNtNtCse561JCZuupE_2vx3cli5fetch21fetch_python_versions
FNDA:0,_RNvNtNtCse561JCZuupE_2vx3cli5fetch28handle_interactive_selection
FNDA:0,_RNvNtNtCse561JCZuupE_2vx3cli5fetch6handle
FNDA:0,_RNCNCNCNCNCNvNtNtCs8vv7mWF5ug8_2vx3cli5fetch6handle00s_000CsgEqbR8KZSOZ_2vx
FNDA:0,_RNCNCNCNvNtNtCs8vv7mWF5ug8_2vx3cli5fetch28handle_interactive_selection000CsgEqbR8KZSOZ_2vx
FNDA:0,_RNCNCNvNtNtCs8vv7mWF5ug8_2vx3cli5fetch28handle_interactive_selection00CsgEqbR8KZSOZ_2vx
FNDA:0,_RNCNCNCNCNvNtNtCs8vv7mWF5ug8_2vx3cli5fetch6handle00s_00CsgEqbR8KZSOZ_2vx
FNDA:0,_RNCNCNvNtNtCs8vv7mWF5ug8_2vx3cli5fetch17fetch_uv_versions00CsgEqbR8KZSOZ_2vx
FNDA:0,_RNCNCNvNtNtCs8vv7mWF5ug8_2vx3cli5fetch17fetch_uv_versions0s_0CsgEqbR8KZSOZ_2vx
FNDA:0,_RNCNCNvNtNtCs8vv7mWF5ug8_2vx3cli5fetch21display_versions_list00CsgEqbR8KZSOZ_2vx
FNDA:0,_RNCNvNtNtCs8vv7mWF5ug8_2vx3cli5fetch17fetch_go_versions0CsgEqbR8KZSOZ_2vx
FNDA:0,_RNCNvNtNtCs8vv7mWF5ug8_2vx3cli5fetch17fetch_uv_versions0CsgEqbR8KZSOZ_2vx
FNDA:0,_RNCNvNtNtCs8vv7mWF5ug8_2vx3cli5fetch18get_active_version0CsgEqbR8KZSOZ_2vx
FNDA:0,_RNCNvNtNtCs8vv7mWF5ug8_2vx3cli5fetch19fetch_node_versions0CsgEqbR8KZSOZ_2vx
FNDA:0,_RNCNvNtNtCs8vv7mWF5ug8_2vx3cli5fetch19fetch_rust_versions0CsgEqbR8KZSOZ_2vx
FNDA:0,_RNCNvNtNtCs8vv7mWF5ug8_2vx3cli5fetch19fetch_tool_versions0CsgEqbR8KZSOZ_2vx
FNDA:0,_RNCNvNtNtCs8vv7mWF5ug8_2vx3cli5fetch21display_versions_list0CsgEqbR8KZSOZ_2vx
FNDA:0,_RNCNvNtNtCs8vv7mWF5ug8_2vx3cli5fetch21fetch_python_versions0CsgEqbR8KZSOZ_2vx
FNDA:0,_RNCNvNtNtCs8vv7mWF5ug8_2vx3cli5fetch28handle_interactive_selection0CsgEqbR8KZSOZ_2vx
FNDA:0,_RNCNvNtNtCs8vv7mWF5ug8_2vx3cli5fetch6handle0CsgEqbR8KZSOZ_2vx
FNDA:0,_RNvNtNtCs8vv7mWF5ug8_2vx3cli5fetch17fetch_go_versions
FNDA:0,_RNvNtNtCs8vv7mWF5ug8_2vx3cli5fetch17fetch_uv_versions
FNDA:0,_RNvNtNtCs8vv7mWF5ug8_2vx3cli5fetch18get_active_version
FNDA:0,_RNvNtNtCs8vv7mWF5ug8_2vx3cli5fetch19fetch_node_versions
FNDA:0,_RNvNtNtCs8vv7mWF5ug8_2vx3cli5fetch19fetch_rust_versions
FNDA:0,_RNvNtNtCs8vv7mWF5ug8_2vx3cli5fetch19fetch_tool_versions
FNDA:0,_RNvNtNtCs8vv7mWF5ug8_2vx3cli5fetch21display_versions_list
FNDA:0,_RNvNtNtCs8vv7mWF5ug8_2vx3cli5fetch21fetch_python_versions
FNDA:0,_RNvNtNtCs8vv7mWF5ug8_2vx3cli5fetch28handle_interactive_selection
FNDA:0,_RNvNtNtCs8vv7mWF5ug8_2vx3cli5fetch6handle
FNF:27
FNH:0
DA:11,0
DA:12,0
DA:13,0
DA:14,0
DA:15,0
DA:16,0
DA:17,0
DA:41,0
DA:49,0
DA:50,0
DA:51,0
DA:52,0
DA:53,0
DA:54,0
DA:55,0
DA:58,0
DA:60,0
DA:61,0
DA:82,0
DA:84,0
DA:85,0
DA:86,0
DA:87,0
DA:88,0
DA:89,0
DA:90,0
DA:91,0
DA:93,0
DA:94,0
DA:95,0
DA:96,0
DA:97,0
DA:98,0
DA:99,0
DA:100,0
DA:103,0
DA:104,0
DA:105,0
DA:106,0
DA:109,0
DA:110,0
DA:111,0
DA:114,0
DA:115,0
DA:116,0
DA:119,0
DA:120,0
DA:122,0
DA:126,0
DA:127,0
DA:128,0
DA:129,0
DA:131,0
DA:134,0
DA:135,0
DA:136,0
DA:140,0
DA:141,0
DA:143,0
DA:147,0
DA:148,0
DA:149,0
DA:151,0
DA:153,0
DA:154,0
DA:155,0
DA:156,0
DA:157,0
DA:160,0
DA:161,0
DA:162,0
DA:163,0
DA:164,0
DA:165,0
DA:166,0
DA:167,0
DA:168,0
DA:169,0
DA:170,0
DA:171,0
DA:172,0
DA:175,0
DA:176,0
DA:177,0
DA:178,0
DA:179,0
DA:180,0
DA:181,0
DA:182,0
DA:184,0
DA:185,0
DA:186,0
DA:187,0
DA:188,0
DA:189,0
DA:190,0
DA:191,0
DA:193,0
DA:194,0
DA:195,0
DA:196,0
DA:197,0
DA:198,0
DA:199,0
DA:200,0
DA:201,0
DA:202,0
DA:203,0
DA:204,0
DA:205,0
DA:206,0
DA:207,0
DA:208,0
DA:209,0
DA:210,0
DA:211,0
DA:213,0
DA:214,0
DA:215,0
DA:217,0
DA:218,0
DA:219,0
DA:221,0
DA:222,0
DA:223,0
DA:225,0
DA:226,0
DA:228,0
DA:231,0
DA:232,0
DA:233,0
DA:234,0
DA:235,0
DA:236,0
DA:237,0
DA:238,0
DA:239,0
DA:240,0
DA:242,0
DA:243,0
DA:244,0
DA:245,0
DA:246,0
DA:247,0
DA:248,0
DA:249,0
DA:251,0
DA:252,0
DA:253,0
DA:255,0
DA:256,0
DA:257,0
DA:259,0
DA:260,0
DA:261,0
DA:262,0
DA:263,0
DA:264,0
DA:265,0
DA:266,0
DA:267,0
DA:268,0
DA:269,0
DA:270,0
DA:273,0
DA:274,0
DA:275,0
DA:276,0
DA:277,0
DA:278,0
DA:279,0
DA:280,0
DA:281,0
DA:282,0
DA:283,0
DA:287,0
DA:288,0
DA:291,0
DA:292,0
DA:293,0
DA:294,0
DA:295,0
DA:296,0
DA:297,0
DA:298,0
DA:300,0
DA:301,0
DA:302,0
DA:303,0
DA:304,0
DA:305,0
DA:306,0
DA:307,0
DA:308,0
DA:309,0
DA:313,0
DA:314,0
DA:315,0
DA:318,0
DA:319,0
DA:321,0
DA:322,0
DA:324,0
DA:325,0
DA:326,0
DA:327,0
DA:328,0
DA:329,0
DA:331,0
DA:332,0
DA:333,0
DA:334,0
DA:335,0
DA:339,0
DA:340,0
DA:341,0
DA:343,0
DA:345,0
DA:346,0
DA:347,0
DA:348,0
DA:349,0
DA:351,0
DA:352,0
DA:353,0
DA:354,0
DA:356,0
DA:357,0
DA:370,0
DA:371,0
DA:372,0
DA:373,0
DA:375,0
DA:376,0
DA:377,0
DA:378,0
DA:379,0
DA:381,0
DA:383,0
DA:385,0
DA:386,0
DA:387,0
DA:388,0
DA:389,0
DA:390,0
DA:391,0
DA:392,0
DA:393,0
DA:394,0
DA:395,0
DA:396,0
DA:397,0
DA:398,0
DA:399,0
DA:400,0
DA:401,0
DA:403,0
DA:405,0
DA:406,0
DA:407,0
DA:408,0
DA:409,0
DA:410,0
DA:411,0
DA:412,0
DA:413,0
DA:414,0
DA:415,0
DA:417,0
DA:418,0
DA:420,0
DA:421,0
DA:422,0
DA:423,0
DA:424,0
DA:425,0
DA:426,0
DA:427,0
DA:428,0
DA:429,0
DA:430,0
DA:431,0
DA:432,0
DA:433,0
DA:434,0
DA:435,0
DA:436,0
DA:437,0
DA:438,0
DA:439,0
DA:441,0
DA:442,0
DA:443,0
DA:444,0
DA:445,0
DA:446,0
DA:447,0
DA:448,0
DA:449,0
DA:450,0
DA:451,0
DA:452,0
DA:453,0
DA:454,0
DA:455,0
DA:456,0
DA:457,0
DA:458,0
DA:459,0
DA:460,0
DA:462,0
DA:463,0
DA:464,0
DA:465,0
DA:466,0
DA:467,0
DA:468,0
DA:469,0
DA:470,0
DA:471,0
DA:472,0
DA:473,0
DA:474,0
DA:475,0
DA:476,0
DA:477,0
DA:478,0
DA:479,0
DA:480,0
DA:481,0
DA:483,0
DA:484,0
DA:485,0
DA:486,0
DA:487,0
DA:488,0
DA:489,0
DA:490,0
DA:491,0
DA:492,0
DA:493,0
DA:494,0
DA:495,0
DA:496,0
DA:497,0
DA:498,0
DA:499,0
DA:500,0
DA:501,0
DA:502,0
BRF:0
BRH:0
LF:368
LH:0
end_of_record
SF:C:\github\mcpx\src\cli\install.rs
FN:33,_RNCNCNCNCNvNtNtCse561JCZuupE_2vx3cli7install6handle00s_00Bd_
FN:10,_RNCNCNCNvNtNtCse561JCZuupE_2vx3cli7install6handle000Bb_
FN:9,_RNCNvNtNtCse561JCZuupE_2vx3cli7install6handle0B7_
FN:9,_RNvNtNtCse561JCZuupE_2vx3cli7install6handle
FN:33,_RNCNCNCNCNvNtNtCs8vv7mWF5ug8_2vx3cli7install6handle00s_00CsgEqbR8KZSOZ_2vx
FN:10,_RNCNCNCNvNtNtCs8vv7mWF5ug8_2vx3cli7install6handle000CsgEqbR8KZSOZ_2vx
FN:9,_RNCNvNtNtCs8vv7mWF5ug8_2vx3cli7install6handle0CsgEqbR8KZSOZ_2vx
FN:9,_RNvNtNtCs8vv7mWF5ug8_2vx3cli7install6handle
FNDA:0,_RNCNCNCNCNvNtNtCse561JCZuupE_2vx3cli7install6handle00s_00Bd_
FNDA:0,_RNCNCNCNvNtNtCse561JCZuupE_2vx3cli7install6handle000Bb_
FNDA:0,_RNCNvNtNtCse561JCZuupE_2vx3cli7install6handle0B7_
FNDA:0,_RNvNtNtCse561JCZuupE_2vx3cli7install6handle
FNDA:0,_RNCNCNCNCNvNtNtCs8vv7mWF5ug8_2vx3cli7install6handle00s_00CsgEqbR8KZSOZ_2vx
FNDA:0,_RNCNCNCNvNtNtCs8vv7mWF5ug8_2vx3cli7install6handle000CsgEqbR8KZSOZ_2vx
FNDA:0,_RNCNvNtNtCs8vv7mWF5ug8_2vx3cli7install6handle0CsgEqbR8KZSOZ_2vx
FNDA:0,_RNvNtNtCs8vv7mWF5ug8_2vx3cli7install6handle
FNF:4
FNH:0
DA:9,0
DA:10,0
DA:33,0
DA:34,0
DA:35,0
DA:36,0
DA:52,0
BRF:0
BRH:0
LF:8
LH:0
end_of_record
SF:C:\github\mcpx\src\cli\list.rs
FN:147,_RNCNCNvNtNtCse561JCZuupE_2vx3cli4list14list_all_tools00B9_
FN:102,_RNCNCNvNtNtCse561JCZuupE_2vx3cli4list20list_installed_tools00B9_
FN:9,_RNCNCNvNtNtCse561JCZuupE_2vx3cli4list6handle00B9_
FN:112,_RNCNvNtNtCse561JCZuupE_2vx3cli4list14list_all_tools0B7_
FN:159,_RNCNvNtNtCse561JCZuupE_2vx3cli4list18get_active_version0B7_
FN:28,_RNCNvNtNtCse561JCZuupE_2vx3cli4list18list_tool_versions0B7_
FN:73,_RNCNvNtNtCse561JCZuupE_2vx3cli4list20list_installed_tools0B7_
FN:8,_RNCNvNtNtCse561JCZuupE_2vx3cli4list6handle0B7_
FN:212,_RNvNtNtCse561JCZuupE_2vx3cli4list11format_size
FN:179,_RNvNtNtCse561JCZuupE_2vx3cli4list14calculate_size
FN:112,_RNvNtNtCse561JCZuupE_2vx3cli4list14list_all_tools
FN:159,_RNvNtNtCse561JCZuupE_2vx3cli4list18get_active_version
FN:28,_RNvNtNtCse561JCZuupE_2vx3cli4list18list_tool_versions
FN:73,_RNvNtNtCse561JCZuupE_2vx3cli4list20list_installed_tools
FN:196,_RNvNtNtCse561JCZuupE_2vx3cli4list25calculate_tool_total_size
FN:8,_RNvNtNtCse561JCZuupE_2vx3cli4list6handle
FN:147,_RNCNCNvNtNtCs8vv7mWF5ug8_2vx3cli4list14list_all_tools00CsgEqbR8KZSOZ_2vx
FN:102,_RNCNCNvNtNtCs8vv7mWF5ug8_2vx3cli4list20list_installed_tools00CsgEqbR8KZSOZ_2vx
FN:9,_RNCNCNvNtNtCs8vv7mWF5ug8_2vx3cli4list6handle00CsgEqbR8KZSOZ_2vx
FN:112,_RNCNvNtNtCs8vv7mWF5ug8_2vx3cli4list14list_all_tools0CsgEqbR8KZSOZ_2vx
FN:159,_RNCNvNtNtCs8vv7mWF5ug8_2vx3cli4list18get_active_version0CsgEqbR8KZSOZ_2vx
FN:28,_RNCNvNtNtCs8vv7mWF5ug8_2vx3cli4list18list_tool_versions0CsgEqbR8KZSOZ_2vx
FN:73,_RNCNvNtNtCs8vv7mWF5ug8_2vx3cli4list20list_installed_tools0CsgEqbR8KZSOZ_2vx
FN:8,_RNCNvNtNtCs8vv7mWF5ug8_2vx3cli4list6handle0CsgEqbR8KZSOZ_2vx
FN:212,_RNvNtNtCs8vv7mWF5ug8_2vx3cli4list11format_size
FN:179,_RNvNtNtCs8vv7mWF5ug8_2vx3cli4list14calculate_size
FN:112,_RNvNtNtCs8vv7mWF5ug8_2vx3cli4list14list_all_tools
FN:159,_RNvNtNtCs8vv7mWF5ug8_2vx3cli4list18get_active_version
FN:28,_RNvNtNtCs8vv7mWF5ug8_2vx3cli4list18list_tool_versions
FN:73,_RNvNtNtCs8vv7mWF5ug8_2vx3cli4list20list_installed_tools
FN:196,_RNvNtNtCs8vv7mWF5ug8_2vx3cli4list25calculate_tool_total_size
FN:8,_RNvNtNtCs8vv7mWF5ug8_2vx3cli4list6handle
FNDA:0,_RNCNCNvNtNtCse561JCZuupE_2vx3cli4list14list_all_tools00B9_
FNDA:0,_RNCNCNvNtNtCse561JCZuupE_2vx3cli4list20list_installed_tools00B9_
FNDA:0,_RNCNCNvNtNtCse561JCZuupE_2vx3cli4list6handle00B9_
FNDA:0,_RNCNvNtNtCse561JCZuupE_2vx3cli4list14list_all_tools0B7_
FNDA:0,_RNCNvNtNtCse561JCZuupE_2vx3cli4list18get_active_version0B7_
FNDA:0,_RNCNvNtNtCse561JCZuupE_2vx3cli4list18list_tool_versions0B7_
FNDA:0,_RNCNvNtNtCse561JCZuupE_2vx3cli4list20list_installed_tools0B7_
FNDA:0,_RNCNvNtNtCse561JCZuupE_2vx3cli4list6handle0B7_
FNDA:0,_RNvNtNtCse561JCZuupE_2vx3cli4list11format_size
FNDA:0,_RNvNtNtCse561JCZuupE_2vx3cli4list14calculate_size
FNDA:0,_RNvNtNtCse561JCZuupE_2vx3cli4list14list_all_tools
FNDA:0,_RNvNtNtCse561JCZuupE_2vx3cli4list18get_active_version
FNDA:0,_RNvNtNtCse561JCZuupE_2vx3cli4list18list_tool_versions
FNDA:0,_RNvNtNtCse561JCZuupE_2vx3cli4list20list_installed_tools
FNDA:0,_RNvNtNtCse561JCZuupE_2vx3cli4list25calculate_tool_total_size
FNDA:0,_RNvNtNtCse561JCZuupE_2vx3cli4list6handle
FNDA:0,_RNCNCNvNtNtCs8vv7mWF5ug8_2vx3cli4list14list_all_tools00CsgEqbR8KZSOZ_2vx
FNDA:0,_RNCNCNvNtNtCs8vv7mWF5ug8_2vx3cli4list20list_installed_tools00CsgEqbR8KZSOZ_2vx
FNDA:0,_RNCNCNvNtNtCs8vv7mWF5ug8_2vx3cli4list6handle00CsgEqbR8KZSOZ_2vx
FNDA:0,_RNCNvNtNtCs8vv7mWF5ug8_2vx3cli4list14list_all_tools0CsgEqbR8KZSOZ_2vx
FNDA:0,_RNCNvNtNtCs8vv7mWF5ug8_2vx3cli4list18get_active_version0CsgEqbR8KZSOZ_2vx
FNDA:0,_RNCNvNtNtCs8vv7mWF5ug8_2vx3cli4list18list_tool_versions0CsgEqbR8KZSOZ_2vx
FNDA:0,_RNCNvNtNtCs8vv7mWF5ug8_2vx3cli4list20list_installed_tools0CsgEqbR8KZSOZ_2vx
FNDA:0,_RNCNvNtNtCs8vv7mWF5ug8_2vx3cli4list6handle0CsgEqbR8KZSOZ_2vx
FNDA:0,_RNvNtNtCs8vv7mWF5ug8_2vx3cli4list11format_size
FNDA:0,_RNvNtNtCs8vv7mWF5ug8_2vx3cli4list14calculate_size
FNDA:0,_RNvNtNtCs8vv7mWF5ug8_2vx3cli4list14list_all_tools
FNDA:0,_RNvNtNtCs8vv7mWF5ug8_2vx3cli4list18get_active_version
FNDA:0,_RNvNtNtCs8vv7mWF5ug8_2vx3cli4list18list_tool_versions
FNDA:0,_RNvNtNtCs8vv7mWF5ug8_2vx3cli4list20list_installed_tools
FNDA:0,_RNvNtNtCs8vv7mWF5ug8_2vx3cli4list25calculate_tool_total_size
FNDA:0,_RNvNtNtCs8vv7mWF5ug8_2vx3cli4list6handle
FNF:16
FNH:0
DA:8,0
DA:9,0
DA:11,0
DA:12,0
DA:13,0
DA:14,0
DA:17,0
DA:19,0
DA:22,0
DA:26,0
DA:28,0
DA:29,0
DA:32,0
DA:33,0
DA:34,0
DA:35,0
DA:36,0
DA:37,0
DA:38,0
DA:39,0
DA:42,0
DA:44,0
DA:45,0
DA:46,0
DA:48,0
DA:49,0
DA:50,0
DA:51,0
DA:52,0
DA:53,0
DA:54,0
DA:55,0
DA:56,0
DA:57,0
DA:58,0
DA:59,0
DA:60,0
DA:61,0
DA:62,0
DA:65,0
DA:66,0
DA:67,0
DA:68,0
DA:70,0
DA:71,0
DA:73,0
DA:74,0
DA:76,0
DA:77,0
DA:79,0
DA:80,0
DA:81,0
DA:82,0
DA:83,0
DA:84,0
DA:86,0
DA:87,0
DA:88,0
DA:89,0
DA:91,0
DA:92,0
DA:93,0
DA:94,0
DA:95,0
DA:97,0
DA:98,0
DA:99,0
DA:100,0
DA:101,0
DA:102,0
DA:103,0
DA:104,0
DA:105,0
DA:106,0
DA:109,0
DA:110,0
DA:112,0
DA:113,0
DA:114,0
DA:115,0
DA:116,0
DA:118,0
DA:119,0
DA:120,0
DA:121,0
DA:123,0
DA:124,0
DA:125,0
DA:127,0
DA:130,0
DA:131,0
DA:132,0
DA:133,0
DA:135,0
DA:136,0
DA:137,0
DA:139,0
DA:140,0
DA:141,0
DA:142,0
DA:143,0
DA:144,0
DA:147,0
DA:148,0
DA:149,0
DA:150,0
DA:151,0
DA:152,0
DA:153,0
DA:154,0
DA:155,0
DA:156,0
DA:157,0
DA:159,0
DA:161,0
DA:162,0
DA:163,0
DA:165,0
DA:166,0
DA:167,0
DA:168,0
DA:170,0
DA:171,0
DA:172,0
DA:173,0
DA:176,0
DA:177,0
DA:179,0
DA:180,0
DA:181,0
DA:182,0
DA:183,0
DA:184,0
DA:185,0
DA:186,0
DA:187,0
DA:188,0
DA:190,0
DA:192,0
DA:194,0
DA:196,0
DA:197,0
DA:198,0
DA:199,0
DA:200,0
DA:201,0
DA:203,0
DA:204,0
DA:205,0
DA:206,0
DA:209,0
DA:210,0
DA:212,0
DA:214,0
DA:215,0
DA:217,0
DA:218,0
DA:219,0
DA:220,0
DA:222,0
DA:223,0
DA:225,0
DA:227,0
BRF:0
BRH:0
LF:171
LH:0
end_of_record
SF:C:\github\mcpx\src\cli\mod.rs
FN:32,_RNCNvXs0_NtCse561JCZuupE_2vx3cliNtB7_3CliNtNtCs9dv23kYwsEz_12clap_builder6derive14FromArgMatches20from_arg_matches_mut0B9_
FN:40,_RNCNvXs0_NtCse561JCZuupE_2vx3cliNtB7_3CliNtNtCs9dv23kYwsEz_12clap_builder6derive14FromArgMatches20from_arg_matches_muts0_0B9_
FN:36,_RNCNvXs0_NtCse561JCZuupE_2vx3cliNtB7_3CliNtNtCs9dv23kYwsEz_12clap_builder6derive14FromArgMatches20from_arg_matches_muts_0B9_
FN:32,_RNCNvXs0_NtCse561JCZuupE_2vx3cliNtB7_3CliNtNtCs9dv23kYwsEz_12clap_builder6derive14FromArgMatches27update_from_arg_matches_mut0B9_
FN:40,_RNCNvXs0_NtCse561JCZuupE_2vx3cliNtB7_3CliNtNtCs9dv23kYwsEz_12clap_builder6derive14FromArgMatches27update_from_arg_matches_muts0_0B9_
FN:36,_RNCNvXs0_NtCse561JCZuupE_2vx3cliNtB7_3CliNtNtCs9dv23kYwsEz_12clap_builder6derive14FromArgMatches27update_from_arg_matches_muts_0B9_
FN:54,_RNCNvXs2_NtCse561JCZuupE_2vx3cliNtB7_8CommandsNtNtCs9dv23kYwsEz_12clap_builder6derive14FromArgMatches20from_arg_matches_mut0B9_
FN:68,_RNCNvXs2_NtCse561JCZuupE_2vx3cliNtB7_8CommandsNtNtCs9dv23kYwsEz_12clap_builder6derive14FromArgMatches20from_arg_matches_muts0_0B9_
FN:74,_RNCNvXs2_NtCse561JCZuupE_2vx3cliNtB7_8CommandsNtNtCs9dv23kYwsEz_12clap_builder6derive14FromArgMatches20from_arg_matches_muts1_0B9_
FN:79,_RNCNvXs2_NtCse561JCZuupE_2vx3cliNtB7_8CommandsNtNtCs9dv23kYwsEz_12clap_builder6derive14FromArgMatches20from_arg_matches_muts2_0B9_
FN:85,_RNCNvXs2_NtCse561JCZuupE_2vx3cliNtB7_8CommandsNtNtCs9dv23kYwsEz_12clap_builder6derive14FromArgMatches20from_arg_matches_muts3_0B9_
FN:88,_RNCNvXs2_NtCse561JCZuupE_2vx3cliNtB7_8CommandsNtNtCs9dv23kYwsEz_12clap_builder6derive14FromArgMatches20from_arg_matches_muts4_0B9_
FN:94,_RNCNvXs2_NtCse561JCZuupE_2vx3cliNtB7_8CommandsNtNtCs9dv23kYwsEz_12clap_builder6derive14FromArgMatches20from_arg_matches_muts5_0B9_
FN:100,_RNCNvXs2_NtCse561JCZuupE_2vx3cliNtB7_8CommandsNtNtCs9dv23kYwsEz_12clap_builder6derive14FromArgMatches20from_arg_matches_muts6_0B9_
FN:103,_RNCNvXs2_NtCse561JCZuupE_2vx3cliNtB7_8CommandsNtNtCs9dv23kYwsEz_12clap_builder6derive14FromArgMatches20from_arg_matches_muts7_0B9_
FN:106,_RNCNvXs2_NtCse561JCZuupE_2vx3cliNtB7_8CommandsNtNtCs9dv23kYwsEz_12clap_builder6derive14FromArgMatches20from_arg_matches_muts8_0B9_
FN:112,_RNCNvXs2_NtCse561JCZuupE_2vx3cliNtB7_8CommandsNtNtCs9dv23kYwsEz_12clap_builder6derive14FromArgMatches20from_arg_matches_muts9_0B9_
FN:59,_RNCNvXs2_NtCse561JCZuupE_2vx3cliNtB7_8CommandsNtNtCs9dv23kYwsEz_12clap_builder6derive14FromArgMatches20from_arg_matches_muts_0B9_
FN:118,_RNCNvXs2_NtCse561JCZuupE_2vx3cliNtB7_8CommandsNtNtCs9dv23kYwsEz_12clap_builder6derive14FromArgMatches20from_arg_matches_mutsa_0B9_
FN:121,_RNCNvXs2_NtCse561JCZuupE_2vx3cliNtB7_8CommandsNtNtCs9dv23kYwsEz_12clap_builder6derive14FromArgMatches20from_arg_matches_mutsb_0B9_
FN:54,_RNCNvXs2_NtCse561JCZuupE_2vx3cliNtB7_8CommandsNtNtCs9dv23kYwsEz_12clap_builder6derive14FromArgMatches27update_from_arg_matches_mut0B9_
FN:68,_RNCNvXs2_NtCse561JCZuupE_2vx3cliNtB7_8CommandsNtNtCs9dv23kYwsEz_12clap_builder6derive14FromArgMatches27update_from_arg_matches_muts0_0B9_
FN:74,_RNCNvXs2_NtCse561JCZuupE_2vx3cliNtB7_8CommandsNtNtCs9dv23kYwsEz_12clap_builder6derive14FromArgMatches27update_from_arg_matches_muts1_0B9_
FN:79,_RNCNvXs2_NtCse561JCZuupE_2vx3cliNtB7_8CommandsNtNtCs9dv23kYwsEz_12clap_builder6derive14FromArgMatches27update_from_arg_matches_muts2_0B9_
FN:85,_RNCNvXs2_NtCse561JCZuupE_2vx3cliNtB7_8CommandsNtNtCs9dv23kYwsEz_12clap_builder6derive14FromArgMatches27update_from_arg_matches_muts3_0B9_
FN:88,_RNCNvXs2_NtCse561JCZuupE_2vx3cliNtB7_8CommandsNtNtCs9dv23kYwsEz_12clap_builder6derive14FromArgMatches27update_from_arg_matches_muts4_0B9_
FN:94,_RNCNvXs2_NtCse561JCZuupE_2vx3cliNtB7_8CommandsNtNtCs9dv23kYwsEz_12clap_builder6derive14FromArgMatches27update_from_arg_matches_muts5_0B9_
FN:100,_RNCNvXs2_NtCse561JCZuupE_2vx3cliNtB7_8CommandsNtNtCs9dv23kYwsEz_12clap_builder6derive14FromArgMatches27update_from_arg_matches_muts6_0B9_
FN:103,_RNCNvXs2_NtCse561JCZuupE_2vx3cliNtB7_8CommandsNtNtCs9dv23kYwsEz_12clap_builder6derive14FromArgMatches27update_from_arg_matches_muts7_0B9_
FN:106,_RNCNvXs2_NtCse561JCZuupE_2vx3cliNtB7_8CommandsNtNtCs9dv23kYwsEz_12clap_builder6derive14FromArgMatches27update_from_arg_matches_muts8_0B9_
FN:112,_RNCNvXs2_NtCse561JCZuupE_2vx3cliNtB7_8CommandsNtNtCs9dv23kYwsEz_12clap_builder6derive14FromArgMatches27update_from_arg_matches_muts9_0B9_
FN:59,_RNCNvXs2_NtCse561JCZuupE_2vx3cliNtB7_8CommandsNtNtCs9dv23kYwsEz_12clap_builder6derive14FromArgMatches27update_from_arg_matches_muts_0B9_
FN:118,_RNCNvXs2_NtCse561JCZuupE_2vx3cliNtB7_8CommandsNtNtCs9dv23kYwsEz_12clap_builder6derive14FromArgMatches27update_from_arg_matches_mutsa_0B9_
FN:121,_RNCNvXs2_NtCse561JCZuupE_2vx3cliNtB7_8CommandsNtNtCs9dv23kYwsEz_12clap_builder6derive14FromArgMatches27update_from_arg_matches_mutsb_0B9_
FN:156,_RNCNvXs4_NtCse561JCZuupE_2vx3cliNtB7_13ConfigCommandNtNtCs9dv23kYwsEz_12clap_builder6derive14FromArgMatches20from_arg_matches_mut0B9_
FN:163,_RNCNvXs4_NtCse561JCZuupE_2vx3cliNtB7_13ConfigCommandNtNtCs9dv23kYwsEz_12clap_builder6derive14FromArgMatches20from_arg_matches_muts0_0B9_
FN:158,_RNCNvXs4_NtCse561JCZuupE_2vx3cliNtB7_13ConfigCommandNtNtCs9dv23kYwsEz_12clap_builder6derive14FromArgMatches20from_arg_matches_muts_0B9_
FN:156,_RNCNvXs4_NtCse561JCZuupE_2vx3cliNtB7_13ConfigCommandNtNtCs9dv23kYwsEz_12clap_builder6derive14FromArgMatches27update_from_arg_matches_mut0B9_
FN:163,_RNCNvXs4_NtCse561JCZuupE_2vx3cliNtB7_13ConfigCommandNtNtCs9dv23kYwsEz_12clap_builder6derive14FromArgMatches27update_from_arg_matches_muts0_0B9_
FN:158,_RNCNvXs4_NtCse561JCZuupE_2vx3cliNtB7_13ConfigCommandNtNtCs9dv23kYwsEz_12clap_builder6derive14FromArgMatches27update_from_arg_matches_muts_0B9_
FN:180,_RNCNvXs6_NtCse561JCZuupE_2vx3cliNtB7_13PluginCommandNtNtCs9dv23kYwsEz_12clap_builder6derive14FromArgMatches20from_arg_matches_mut0B9_
FN:193,_RNCNvXs6_NtCse561JCZuupE_2vx3cliNtB7_13PluginCommandNtNtCs9dv23kYwsEz_12clap_builder6derive14FromArgMatches20from_arg_matches_muts0_0B9_
FN:198,_RNCNvXs6_NtCse561JCZuupE_2vx3cliNtB7_13PluginCommandNtNtCs9dv23kYwsEz_12clap_builder6derive14FromArgMatches20from_arg_matches_muts1_0B9_
FN:203,_RNCNvXs6_NtCse561JCZuupE_2vx3cliNtB7_13PluginCommandNtNtCs9dv23kYwsEz_12clap_builder6derive14FromArgMatches20from_arg_matches_muts2_0B9_
FN:188,_RNCNvXs6_NtCse561JCZuupE_2vx3cliNtB7_13PluginCommandNtNtCs9dv23kYwsEz_12clap_builder6derive14FromArgMatches20from_arg_matches_muts_0B9_
FN:180,_RNCNvXs6_NtCse561JCZuupE_2vx3cliNtB7_13PluginCommandNtNtCs9dv23kYwsEz_12clap_builder6derive14FromArgMatches27update_from_arg_matches_mut0B9_
FN:193,_RNCNvXs6_NtCse561JCZuupE_2vx3cliNtB7_13PluginCommandNtNtCs9dv23kYwsEz_12clap_builder6derive14FromArgMatches27update_from_arg_matches_muts0_0B9_
FN:198,_RNCNvXs6_NtCse561JCZuupE_2vx3cliNtB7_13PluginCommandNtNtCs9dv23kYwsEz_12clap_builder6derive14FromArgMatches27update_from_arg_matches_muts1_0B9_
FN:203,_RNCNvXs6_NtCse561JCZuupE_2vx3cliNtB7_13PluginCommandNtNtCs9dv23kYwsEz_12clap_builder6derive14FromArgMatches27update_from_arg_matches_muts2_0B9_
FN:188,_RNCNvXs6_NtCse561JCZuupE_2vx3cliNtB7_13PluginCommandNtNtCs9dv23kYwsEz_12clap_builder6derive14FromArgMatches27update_from_arg_matches_muts_0B9_
FN:32,_RNCNvXs0_NtCs8vv7mWF5ug8_2vx3cliNtB7_3CliNtNtCs9dv23kYwsEz_12clap_builder6derive14FromArgMatches20from_arg_matches_mut0B9_
FN:40,_RNCNvXs0_NtCs8vv7mWF5ug8_2vx3cliNtB7_3CliNtNtCs9dv23kYwsEz_12clap_builder6derive14FromArgMatches20from_arg_matches_muts0_0B9_
FN:36,_RNCNvXs0_NtCs8vv7mWF5ug8_2vx3cliNtB7_3CliNtNtCs9dv23kYwsEz_12clap_builder6derive14FromArgMatches20from_arg_matches_muts_0B9_
FN:32,_RNCNvXs0_NtCs8vv7mWF5ug8_2vx3cliNtB7_3CliNtNtCs9dv23kYwsEz_12clap_builder6derive14FromArgMatches27update_from_arg_matches_mut0B9_
FN:40,_RNCNvXs0_NtCs8vv7mWF5ug8_2vx3cliNtB7_3CliNtNtCs9dv23kYwsEz_12clap_builder6derive14FromArgMatches27update_from_arg_matches_muts0_0B9_
FN:36,_RNCNvXs0_NtCs8vv7mWF5ug8_2vx3cliNtB7_3CliNtNtCs9dv23kYwsEz_12clap_builder6derive14FromArgMatches27update_from_arg_matches_muts_0B9_
FN:54,_RNCNvXs2_NtCs8vv7mWF5ug8_2vx3cliNtB7_8CommandsNtNtCs9dv23kYwsEz_12clap_builder6derive14FromArgMatches20from_arg_matches_mut0B9_
FN:68,_RNCNvXs2_NtCs8vv7mWF5ug8_2vx3cliNtB7_8CommandsNtNtCs9dv23kYwsEz_12clap_builder6derive14FromArgMatches20from_arg_matches_muts0_0B9_
FN:74,_RNCNvXs2_NtCs8vv7mWF5ug8_2vx3cliNtB7_8CommandsNtNtCs9dv23kYwsEz_12clap_builder6derive14FromArgMatches20from_arg_matches_muts1_0B9_
FN:79,_RNCNvXs2_NtCs8vv7mWF5ug8_2vx3cliNtB7_8CommandsNtNtCs9dv23kYwsEz_12clap_builder6derive14FromArgMatches20from_arg_matches_muts2_0B9_
FN:85,_RNCNvXs2_NtCs8vv7mWF5ug8_2vx3cliNtB7_8CommandsNtNtCs9dv23kYwsEz_12clap_builder6derive14FromArgMatches20from_arg_matches_muts3_0B9_
FN:88,_RNCNvXs2_NtCs8vv7mWF5ug8_2vx3cliNtB7_8CommandsNtNtCs9dv23kYwsEz_12clap_builder6derive14FromArgMatches20from_arg_matches_muts4_0B9_
FN:94,_RNCNvXs2_NtCs8vv7mWF5ug8_2vx3cliNtB7_8CommandsNtNtCs9dv23kYwsEz_12clap_builder6derive14FromArgMatches20from_arg_matches_muts5_0B9_
FN:100,_RNCNvXs2_NtCs8vv7mWF5ug8_2vx3cliNtB7_8CommandsNtNtCs9dv23kYwsEz_12clap_builder6derive14FromArgMatches20from_arg_matches_muts6_0B9_
FN:103,_RNCNvXs2_NtCs8vv7mWF5ug8_2vx3cliNtB7_8CommandsNtNtCs9dv23kYwsEz_12clap_builder6derive14FromArgMatches20from_arg_matches_muts7_0B9_
FN:106,_RNCNvXs2_NtCs8vv7mWF5ug8_2vx3cliNtB7_8CommandsNtNtCs9dv23kYwsEz_12clap_builder6derive14FromArgMatches20from_arg_matches_muts8_0B9_
FN:112,_RNCNvXs2_NtCs8vv7mWF5ug8_2vx3cliNtB7_8CommandsNtNtCs9dv23kYwsEz_12clap_builder6derive14FromArgMatches20from_arg_matches_muts9_0B9_
FN:59,_RNCNvXs2_NtCs8vv7mWF5ug8_2vx3cliNtB7_8CommandsNtNtCs9dv23kYwsEz_12clap_builder6derive14FromArgMatches20from_arg_matches_muts_0B9_
FN:118,_RNCNvXs2_NtCs8vv7mWF5ug8_2vx3cliNtB7_8CommandsNtNtCs9dv23kYwsEz_12clap_builder6derive14FromArgMatches20from_arg_matches_mutsa_0B9_
FN:121,_RNCNvXs2_NtCs8vv7mWF5ug8_2vx3cliNtB7_8CommandsNtNtCs9dv23kYwsEz_12clap_builder6derive14FromArgMatches20from_arg_matches_mutsb_0B9_
FN:54,_RNCNvXs2_NtCs8vv7mWF5ug8_2vx3cliNtB7_8CommandsNtNtCs9dv23kYwsEz_12clap_builder6derive14FromArgMatches27update_from_arg_matches_mut0B9_
FN:68,_RNCNvXs2_NtCs8vv7mWF5ug8_2vx3cliNtB7_8CommandsNtNtCs9dv23kYwsEz_12clap_builder6derive14FromArgMatches27update_from_arg_matches_muts0_0B9_
FN:74,_RNCNvXs2_NtCs8vv7mWF5ug8_2vx3cliNtB7_8CommandsNtNtCs9dv23kYwsEz_12clap_builder6derive14FromArgMatches27update_from_arg_matches_muts1_0B9_
FN:79,_RNCNvXs2_NtCs8vv7mWF5ug8_2vx3cliNtB7_8CommandsNtNtCs9dv23kYwsEz_12clap_builder6derive14FromArgMatches27update_from_arg_matches_muts2_0B9_
FN:85,_RNCNvXs2_NtCs8vv7mWF5ug8_2vx3cliNtB7_8CommandsNtNtCs9dv23kYwsEz_12clap_builder6derive14FromArgMatches27update_from_arg_matches_muts3_0B9_
FN:88,_RNCNvXs2_NtCs8vv7mWF5ug8_2vx3cliNtB7_8CommandsNtNtCs9dv23kYwsEz_12clap_builder6derive14FromArgMatches27update_from_arg_matches_muts4_0B9_
FN:94,_RNCNvXs2_NtCs8vv7mWF5ug8_2vx3cliNtB7_8CommandsNtNtCs9dv23kYwsEz_12clap_builder6derive14FromArgMatches27update_from_arg_matches_muts5_0B9_
FN:100,_RNCNvXs2_NtCs8vv7mWF5ug8_2vx3cliNtB7_8CommandsNtNtCs9dv23kYwsEz_12clap_builder6derive14FromArgMatches27update_from_arg_matches_muts6_0B9_
FN:103,_RNCNvXs2_NtCs8vv7mWF5ug8_2vx3cliNtB7_8CommandsNtNtCs9dv23kYwsEz_12clap_builder6derive14FromArgMatches27update_from_arg_matches_muts7_0B9_
FN:106,_RNCNvXs2_NtCs8vv7mWF5ug8_2vx3cliNtB7_8CommandsNtNtCs9dv23kYwsEz_12clap_builder6derive14FromArgMatches27update_from_arg_matches_muts8_0B9_
FN:112,_RNCNvXs2_NtCs8vv7mWF5ug8_2vx3cliNtB7_8CommandsNtNtCs9dv23kYwsEz_12clap_builder6derive14FromArgMatches27update_from_arg_matches_muts9_0B9_
FN:59,_RNCNvXs2_NtCs8vv7mWF5ug8_2vx3cliNtB7_8CommandsNtNtCs9dv23kYwsEz_12clap_builder6derive14FromArgMatches27update_from_arg_matches_muts_0B9_
FN:118,_RNCNvXs2_NtCs8vv7mWF5ug8_2vx3cliNtB7_8CommandsNtNtCs9dv23kYwsEz_12clap_builder6derive14FromArgMatches27update_from_arg_matches_mutsa_0B9_
FN:121,_RNCNvXs2_NtCs8vv7mWF5ug8_2vx3cliNtB7_8CommandsNtNtCs9dv23kYwsEz_12clap_builder6derive14FromArgMatches27update_from_arg_matches_mutsb_0B9_
FN:156,_RNCNvXs4_NtCs8vv7mWF5ug8_2vx3cliNtB7_13ConfigCommandNtNtCs9dv23kYwsEz_12clap_builder6derive14FromArgMatches20from_arg_matches_mut0B9_
FN:163,_RNCNvXs4_NtCs8vv7mWF5ug8_2vx3cliNtB7_13ConfigCommandNtNtCs9dv23kYwsEz_12clap_builder6derive14FromArgMatches20from_arg_matches_muts0_0B9_
FN:158,_RNCNvXs4_NtCs8vv7mWF5ug8_2vx3cliNtB7_13ConfigCommandNtNtCs9dv23kYwsEz_12clap_builder6derive14FromArgMatches20from_arg_matches_muts_0B9_
FN:156,_RNCNvXs4_NtCs8vv7mWF5ug8_2vx3cliNtB7_13ConfigCommandNtNtCs9dv23kYwsEz_12clap_builder6derive14FromArgMatches27update_from_arg_matches_mut0B9_
FN:163,_RNCNvXs4_NtCs8vv7mWF5ug8_2vx3cliNtB7_13ConfigCommandNtNtCs9dv23kYwsEz_12clap_builder6derive14FromArgMatches27update_from_arg_matches_muts0_0B9_
FN:158,_RNCNvXs4_NtCs8vv7mWF5ug8_2vx3cliNtB7_13ConfigCommandNtNtCs9dv23kYwsEz_12clap_builder6derive14FromArgMatches27update_from_arg_matches_muts_0B9_
FN:180,_RNCNvXs6_NtCs8vv7mWF5ug8_2vx3cliNtB7_13PluginCommandNtNtCs9dv23kYwsEz_12clap_builder6derive14FromArgMatches20from_arg_matches_mut0B9_
FN:193,_RNCNvXs6_NtCs8vv7mWF5ug8_2vx3cliNtB7_13PluginCommandNtNtCs9dv23kYwsEz_12clap_builder6derive14FromArgMatches20from_arg_matches_muts0_0B9_
FN:198,_RNCNvXs6_NtCs8vv7mWF5ug8_2vx3cliNtB7_13PluginCommandNtNtCs9dv23kYwsEz_12clap_builder6derive14FromArgMatches20from_arg_matches_muts1_0B9_
FN:203,_RNCNvXs6_NtCs8vv7mWF5ug8_2vx3cliNtB7_13PluginCommandNtNtCs9dv23kYwsEz_12clap_builder6derive14FromArgMatches20from_arg_matches_muts2_0B9_
FN:188,_RNCNvXs6_NtCs8vv7mWF5ug8_2vx3cliNtB7_13PluginCommandNtNtCs9dv23kYwsEz_12clap_builder6derive14FromArgMatches20from_arg_matches_muts_0B9_
FN:180,_RNCNvXs6_NtCs8vv7mWF5ug8_2vx3cliNtB7_13PluginCommandNtNtCs9dv23kYwsEz_12clap_builder6derive14FromArgMatches27update_from_arg_matches_mut0B9_
FN:193,_RNCNvXs6_NtCs8vv7mWF5ug8_2vx3cliNtB7_13PluginCommandNtNtCs9dv23kYwsEz_12clap_builder6derive14FromArgMatches27update_from_arg_matches_muts0_0B9_
FN:198,_RNCNvXs6_NtCs8vv7mWF5ug8_2vx3cliNtB7_13PluginCommandNtNtCs9dv23kYwsEz_12clap_builder6derive14FromArgMatches27update_from_arg_matches_muts1_0B9_
FN:203,_RNCNvXs6_NtCs8vv7mWF5ug8_2vx3cliNtB7_13PluginCommandNtNtCs9dv23kYwsEz_12clap_builder6derive14FromArgMatches27update_from_arg_matches_muts2_0B9_
FN:188,_RNCNvXs6_NtCs8vv7mWF5ug8_2vx3cliNtB7_13PluginCommandNtNtCs9dv23kYwsEz_12clap_builder6derive14FromArgMatches27update_from_arg_matches_muts_0B9_
FNDA:0,_RNCNvXs0_NtCse561JCZuupE_2vx3cliNtB7_3CliNtNtCs9dv23kYwsEz_12clap_builder6derive14FromArgMatches20from_arg_matches_mut0B9_
FNDA:0,_RNCNvXs0_NtCse561JCZuupE_2vx3cliNtB7_3CliNtNtCs9dv23kYwsEz_12clap_builder6derive14FromArgMatches20from_arg_matches_muts0_0B9_
FNDA:0,_RNCNvXs0_NtCse561JCZuupE_2vx3cliNtB7_3CliNtNtCs9dv23kYwsEz_12clap_builder6derive14FromArgMatches20from_arg_matches_muts_0B9_
FNDA:0,_RNCNvXs0_NtCse561JCZuupE_2vx3cliNtB7_3CliNtNtCs9dv23kYwsEz_12clap_builder6derive14FromArgMatches27update_from_arg_matches_mut0B9_
FNDA:0,_RNCNvXs0_NtCse561JCZuupE_2vx3cliNtB7_3CliNtNtCs9dv23kYwsEz_12clap_builder6derive14FromArgMatches27update_from_arg_matches_muts0_0B9_
FNDA:0,_RNCNvXs0_NtCse561JCZuupE_2vx3cliNtB7_3CliNtNtCs9dv23kYwsEz_12clap_builder6derive14FromArgMatches27update_from_arg_matches_muts_0B9_
FNDA:0,_RNCNvXs2_NtCse561JCZuupE_2vx3cliNtB7_8CommandsNtNtCs9dv23kYwsEz_12clap_builder6derive14FromArgMatches20from_arg_matches_mut0B9_
FNDA:0,_RNCNvXs2_NtCse561JCZuupE_2vx3cliNtB7_8CommandsNtNtCs9dv23kYwsEz_12clap_builder6derive14FromArgMatches20from_arg_matches_muts0_0B9_
FNDA:0,_RNCNvXs2_NtCse561JCZuupE_2vx3cliNtB7_8CommandsNtNtCs9dv23kYwsEz_12clap_builder6derive14FromArgMatches20from_arg_matches_muts1_0B9_
FNDA:0,_RNCNvXs2_NtCse561JCZuupE_2vx3cliNtB7_8CommandsNtNtCs9dv23kYwsEz_12clap_builder6derive14FromArgMatches20from_arg_matches_muts2_0B9_
FNDA:0,_RNCNvXs2_NtCse561JCZuupE_2vx3cliNtB7_8CommandsNtNtCs9dv23kYwsEz_12clap_builder6derive14FromArgMatches20from_arg_matches_muts3_0B9_
FNDA:0,_RNCNvXs2_NtCse561JCZuupE_2vx3cliNtB7_8CommandsNtNtCs9dv23kYwsEz_12clap_builder6derive14FromArgMatches20from_arg_matches_muts4_0B9_
FNDA:0,_RNCNvXs2_NtCse561JCZuupE_2vx3cliNtB7_8CommandsNtNtCs9dv23kYwsEz_12clap_builder6derive14FromArgMatches20from_arg_matches_muts5_0B9_
FNDA:0,_RNCNvXs2_NtCse561JCZuupE_2vx3cliNtB7_8CommandsNtNtCs9dv23kYwsEz_12clap_builder6derive14FromArgMatches20from_arg_matches_muts6_0B9_
FNDA:0,_RNCNvXs2_NtCse561JCZuupE_2vx3cliNtB7_8CommandsNtNtCs9dv23kYwsEz_12clap_builder6derive14FromArgMatches20from_arg_matches_muts7_0B9_
FNDA:0,_RNCNvXs2_NtCse561JCZuupE_2vx3cliNtB7_8CommandsNtNtCs9dv23kYwsEz_12clap_builder6derive14FromArgMatches20from_arg_matches_muts8_0B9_
FNDA:0,_RNCNvXs2_NtCse561JCZuupE_2vx3cliNtB7_8CommandsNtNtCs9dv23kYwsEz_12clap_builder6derive14FromArgMatches20from_arg_matches_muts9_0B9_
FNDA:0,_RNCNvXs2_NtCse561JCZuupE_2vx3cliNtB7_8CommandsNtNtCs9dv23kYwsEz_12clap_builder6derive14FromArgMatches20from_arg_matches_muts_0B9_
FNDA:0,_RNCNvXs2_NtCse561JCZuupE_2vx3cliNtB7_8CommandsNtNtCs9dv23kYwsEz_12clap_builder6derive14FromArgMatches20from_arg_matches_mutsa_0B9_
FNDA:0,_RNCNvXs2_NtCse561JCZuupE_2vx3cliNtB7_8CommandsNtNtCs9dv23kYwsEz_12clap_builder6derive14FromArgMatches20from_arg_matches_mutsb_0B9_
FNDA:0,_RNCNvXs2_NtCse561JCZuupE_2vx3cliNtB7_8CommandsNtNtCs9dv23kYwsEz_12clap_builder6derive14FromArgMatches27update_from_arg_matches_mut0B9_
FNDA:0,_RNCNvXs2_NtCse561JCZuupE_2vx3cliNtB7_8CommandsNtNtCs9dv23kYwsEz_12clap_builder6derive14FromArgMatches27update_from_arg_matches_muts0_0B9_
FNDA:0,_RNCNvXs2_NtCse561JCZuupE_2vx3cliNtB7_8CommandsNtNtCs9dv23kYwsEz_12clap_builder6derive14FromArgMatches27update_from_arg_matches_muts1_0B9_
FNDA:0,_RNCNvXs2_NtCse561JCZuupE_2vx3cliNtB7_8CommandsNtNtCs9dv23kYwsEz_12clap_builder6derive14FromArgMatches27update_from_arg_matches_muts2_0B9_
FNDA:0,_RNCNvXs2_NtCse561JCZuupE_2vx3cliNtB7_8CommandsNtNtCs9dv23kYwsEz_12clap_builder6derive14FromArgMatches27update_from_arg_matches_muts3_0B9_
FNDA:0,_RNCNvXs2_NtCse561JCZuupE_2vx3cliNtB7_8CommandsNtNtCs9dv23kYwsEz_12clap_builder6derive14FromArgMatches27update_from_arg_matches_muts4_0B9_
FNDA:0,_RNCNvXs2_NtCse561JCZuupE_2vx3cliNtB7_8CommandsNtNtCs9dv23kYwsEz_12clap_builder6derive14FromArgMatches27update_from_arg_matches_muts5_0B9_
FNDA:0,_RNCNvXs2_NtCse561JCZuupE_2vx3cliNtB7_8CommandsNtNtCs9dv23kYwsEz_12clap_builder6derive14FromArgMatches27update_from_arg_matches_muts6_0B9_
FNDA:0,_RNCNvXs2_NtCse561JCZuupE_2vx3cliNtB7_8CommandsNtNtCs9dv23kYwsEz_12clap_builder6derive14FromArgMatches27update_from_arg_matches_muts7_0B9_
FNDA:0,_RNCNvXs2_NtCse561JCZuupE_2vx3cliNtB7_8CommandsNtNtCs9dv23kYwsEz_12clap_builder6derive14FromArgMatches27update_from_arg_matches_muts8_0B9_
FNDA:0,_RNCNvXs2_NtCse561JCZuupE_2vx3cliNtB7_8CommandsNtNtCs9dv23kYwsEz_12clap_builder6derive14FromArgMatches27update_from_arg_matches_muts9_0B9_
FNDA:0,_RNCNvXs2_NtCse561JCZuupE_2vx3cliNtB7_8CommandsNtNtCs9dv23kYwsEz_12clap_builder6derive14FromArgMatches27update_from_arg_matches_muts_0B9_
FNDA:0,_RNCNvXs2_NtCse561JCZuupE_2vx3cliNtB7_8CommandsNtNtCs9dv23kYwsEz_12clap_builder6derive14FromArgMatches27update_from_arg_matches_mutsa_0B9_
FNDA:0,_RNCNvXs2_NtCse561JCZuupE_2vx3cliNtB7_8CommandsNtNtCs9dv23kYwsEz_12clap_builder6derive14FromArgMatches27update_from_arg_matches_mutsb_0B9_
FNDA:0,_RNCNvXs4_NtCse561JCZuupE_2vx3cliNtB7_13ConfigCommandNtNtCs9dv23kYwsEz_12clap_builder6derive14FromArgMatches20from_arg_matches_mut0B9_
FNDA:0,_RNCNvXs4_NtCse561JCZuupE_2vx3cliNtB7_13ConfigCommandNtNtCs9dv23kYwsEz_12clap_builder6derive14FromArgMatches20from_arg_matches_muts0_0B9_
FNDA:0,_RNCNvXs4_NtCse561JCZuupE_2vx3cliNtB7_13ConfigCommandNtNtCs9dv23kYwsEz_12clap_builder6derive14FromArgMatches20from_arg_matches_muts_0B9_
FNDA:0,_RNCNvXs4_NtCse561JCZuupE_2vx3cliNtB7_13ConfigCommandNtNtCs9dv23kYwsEz_12clap_builder6derive14FromArgMatches27update_from_arg_matches_mut0B9_
FNDA:0,_RNCNvXs4_NtCse561JCZuupE_2vx3cliNtB7_13ConfigCommandNtNtCs9dv23kYwsEz_12clap_builder6derive14FromArgMatches27update_from_arg_matches_muts0_0B9_
FNDA:0,_RNCNvXs4_NtCse561JCZuupE_2vx3cliNtB7_13ConfigCommandNtNtCs9dv23kYwsEz_12clap_builder6derive14FromArgMatches27update_from_arg_matches_muts_0B9_
FNDA:0,_RNCNvXs6_NtCse561JCZuupE_2vx3cliNtB7_13PluginCommandNtNtCs9dv23kYwsEz_12clap_builder6derive14FromArgMatches20from_arg_matches_mut0B9_
FNDA:0,_RNCNvXs6_NtCse561JCZuupE_2vx3cliNtB7_13PluginCommandNtNtCs9dv23kYwsEz_12clap_builder6derive14FromArgMatches20from_arg_matches_muts0_0B9_
FNDA:0,_RNCNvXs6_NtCse561JCZuupE_2vx3cliNtB7_13PluginCommandNtNtCs9dv23kYwsEz_12clap_builder6derive14FromArgMatches20from_arg_matches_muts1_0B9_
FNDA:0,_RNCNvXs6_NtCse561JCZuupE_2vx3cliNtB7_13PluginCommandNtNtCs9dv23kYwsEz_12clap_builder6derive14FromArgMatches20from_arg_matches_muts2_0B9_
FNDA:0,_RNCNvXs6_NtCse561JCZuupE_2vx3cliNtB7_13PluginCommandNtNtCs9dv23kYwsEz_12clap_builder6derive14FromArgMatches20from_arg_matches_muts_0B9_
FNDA:0,_RNCNvXs6_NtCse561JCZuupE_2vx3cliNtB7_13PluginCommandNtNtCs9dv23kYwsEz_12clap_builder6derive14FromArgMatches27update_from_arg_matches_mut0B9_
FNDA:0,_RNCNvXs6_NtCse561JCZuupE_2vx3cliNtB7_13PluginCommandNtNtCs9dv23kYwsEz_12clap_builder6derive14FromArgMatches27update_from_arg_matches_muts0_0B9_
FNDA:0,_RNCNvXs6_NtCse561JCZuupE_2vx3cliNtB7_13PluginCommandNtNtCs9dv23kYwsEz_12clap_builder6derive14FromArgMatches27update_from_arg_matches_muts1_0B9_
FNDA:0,_RNCNvXs6_NtCse561JCZuupE_2vx3cliNtB7_13PluginCommandNtNtCs9dv23kYwsEz_12clap_builder6derive14FromArgMatches27update_from_arg_matches_muts2_0B9_
FNDA:0,_RNCNvXs6_NtCse561JCZuupE_2vx3cliNtB7_13PluginCommandNtNtCs9dv23kYwsEz_12clap_builder6derive14FromArgMatches27update_from_arg_matches_muts_0B9_
FNDA:0,_RNCNvXs0_NtCs8vv7mWF5ug8_2vx3cliNtB7_3CliNtNtCs9dv23kYwsEz_12clap_builder6derive14FromArgMatches20from_arg_matches_mut0B9_
FNDA:0,_RNCNvXs0_NtCs8vv7mWF5ug8_2vx3cliNtB7_3CliNtNtCs9dv23kYwsEz_12clap_builder6derive14FromArgMatches20from_arg_matches_muts0_0B9_
FNDA:0,_RNCNvXs0_NtCs8vv7mWF5ug8_2vx3cliNtB7_3CliNtNtCs9dv23kYwsEz_12clap_builder6derive14FromArgMatches20from_arg_matches_muts_0B9_
FNDA:0,_RNCNvXs0_NtCs8vv7mWF5ug8_2vx3cliNtB7_3CliNtNtCs9dv23kYwsEz_12clap_builder6derive14FromArgMatches27update_from_arg_matches_mut0B9_
FNDA:0,_RNCNvXs0_NtCs8vv7mWF5ug8_2vx3cliNtB7_3CliNtNtCs9dv23kYwsEz_12clap_builder6derive14FromArgMatches27update_from_arg_matches_muts0_0B9_
FNDA:0,_RNCNvXs0_NtCs8vv7mWF5ug8_2vx3cliNtB7_3CliNtNtCs9dv23kYwsEz_12clap_builder6derive14FromArgMatches27update_from_arg_matches_muts_0B9_
FNDA:0,_RNCNvXs2_NtCs8vv7mWF5ug8_2vx3cliNtB7_8CommandsNtNtCs9dv23kYwsEz_12clap_builder6derive14FromArgMatches20from_arg_matches_mut0B9_
FNDA:0,_RNCNvXs2_NtCs8vv7mWF5ug8_2vx3cliNtB7_8CommandsNtNtCs9dv23kYwsEz_12clap_builder6derive14FromArgMatches20from_arg_matches_muts0_0B9_
FNDA:0,_RNCNvXs2_NtCs8vv7mWF5ug8_2vx3cliNtB7_8CommandsNtNtCs9dv23kYwsEz_12clap_builder6derive14FromArgMatches20from_arg_matches_muts1_0B9_
FNDA:0,_RNCNvXs2_NtCs8vv7mWF5ug8_2vx3cliNtB7_8CommandsNtNtCs9dv23kYwsEz_12clap_builder6derive14FromArgMatches20from_arg_matches_muts2_0B9_
FNDA:0,_RNCNvXs2_NtCs8vv7mWF5ug8_2vx3cliNtB7_8CommandsNtNtCs9dv23kYwsEz_12clap_builder6derive14FromArgMatches20from_arg_matches_muts3_0B9_
FNDA:0,_RNCNvXs2_NtCs8vv7mWF5ug8_2vx3cliNtB7_8CommandsNtNtCs9dv23kYwsEz_12clap_builder6derive14FromArgMatches20from_arg_matches_muts4_0B9_
FNDA:0,_RNCNvXs2_NtCs8vv7mWF5ug8_2vx3cliNtB7_8CommandsNtNtCs9dv23kYwsEz_12clap_builder6derive14FromArgMatches20from_arg_matches_muts5_0B9_
FNDA:0,_RNCNvXs2_NtCs8vv7mWF5ug8_2vx3cliNtB7_8CommandsNtNtCs9dv23kYwsEz_12clap_builder6derive14FromArgMatches20from_arg_matches_muts6_0B9_
FNDA:0,_RNCNvXs2_NtCs8vv7mWF5ug8_2vx3cliNtB7_8CommandsNtNtCs9dv23kYwsEz_12clap_builder6derive14FromArgMatches20from_arg_matches_muts7_0B9_
FNDA:0,_RNCNvXs2_NtCs8vv7mWF5ug8_2vx3cliNtB7_8CommandsNtNtCs9dv23kYwsEz_12clap_builder6derive14FromArgMatches20from_arg_matches_muts8_0B9_
FNDA:0,_RNCNvXs2_NtCs8vv7mWF5ug8_2vx3cliNtB7_8CommandsNtNtCs9dv23kYwsEz_12clap_builder6derive14FromArgMatches20from_arg_matches_muts9_0B9_
FNDA:0,_RNCNvXs2_NtCs8vv7mWF5ug8_2vx3cliNtB7_8CommandsNtNtCs9dv23kYwsEz_12clap_builder6derive14FromArgMatches20from_arg_matches_muts_0B9_
FNDA:0,_RNCNvXs2_NtCs8vv7mWF5ug8_2vx3cliNtB7_8CommandsNtNtCs9dv23kYwsEz_12clap_builder6derive14FromArgMatches20from_arg_matches_mutsa_0B9_
FNDA:0,_RNCNvXs2_NtCs8vv7mWF5ug8_2vx3cliNtB7_8CommandsNtNtCs9dv23kYwsEz_12clap_builder6derive14FromArgMatches20from_arg_matches_mutsb_0B9_
FNDA:0,_RNCNvXs2_NtCs8vv7mWF5ug8_2vx3cliNtB7_8CommandsNtNtCs9dv23kYwsEz_12clap_builder6derive14FromArgMatches27update_from_arg_matches_mut0B9_
FNDA:0,_RNCNvXs2_NtCs8vv7mWF5ug8_2vx3cliNtB7_8CommandsNtNtCs9dv23kYwsEz_12clap_builder6derive14FromArgMatches27update_from_arg_matches_muts0_0B9_
FNDA:0,_RNCNvXs2_NtCs8vv7mWF5ug8_2vx3cliNtB7_8CommandsNtNtCs9dv23kYwsEz_12clap_builder6derive14FromArgMatches27update_from_arg_matches_muts1_0B9_
FNDA:0,_RNCNvXs2_NtCs8vv7mWF5ug8_2vx3cliNtB7_8CommandsNtNtCs9dv23kYwsEz_12clap_builder6derive14FromArgMatches27update_from_arg_matches_muts2_0B9_
FNDA:0,_RNCNvXs2_NtCs8vv7mWF5ug8_2vx3cliNtB7_8CommandsNtNtCs9dv23kYwsEz_12clap_builder6derive14FromArgMatches27update_from_arg_matches_muts3_0B9_
FNDA:0,_RNCNvXs2_NtCs8vv7mWF5ug8_2vx3cliNtB7_8CommandsNtNtCs9dv23kYwsEz_12clap_builder6derive14FromArgMatches27update_from_arg_matches_muts4_0B9_
FNDA:0,_RNCNvXs2_NtCs8vv7mWF5ug8_2vx3cliNtB7_8CommandsNtNtCs9dv23kYwsEz_12clap_builder6derive14FromArgMatches27update_from_arg_matches_muts5_0B9_
FNDA:0,_RNCNvXs2_NtCs8vv7mWF5ug8_2vx3cliNtB7_8CommandsNtNtCs9dv23kYwsEz_12clap_builder6derive14FromArgMatches27update_from_arg_matches_muts6_0B9_
FNDA:0,_RNCNvXs2_NtCs8vv7mWF5ug8_2vx3cliNtB7_8CommandsNtNtCs9dv23kYwsEz_12clap_builder6derive14FromArgMatches27update_from_arg_matches_muts7_0B9_
FNDA:0,_RNCNvXs2_NtCs8vv7mWF5ug8_2vx3cliNtB7_8CommandsNtNtCs9dv23kYwsEz_12clap_builder6derive14FromArgMatches27update_from_arg_matches_muts8_0B9_
FNDA:0,_RNCNvXs2_NtCs8vv7mWF5ug8_2vx3cliNtB7_8CommandsNtNtCs9dv23kYwsEz_12clap_builder6derive14FromArgMatches27update_from_arg_matches_muts9_0B9_
FNDA:0,_RNCNvXs2_NtCs8vv7mWF5ug8_2vx3cliNtB7_8CommandsNtNtCs9dv23kYwsEz_12clap_builder6derive14FromArgMatches27update_from_arg_matches_muts_0B9_
FNDA:0,_RNCNvXs2_NtCs8vv7mWF5ug8_2vx3cliNtB7_8CommandsNtNtCs9dv23kYwsEz_12clap_builder6derive14FromArgMatches27update_from_arg_matches_mutsa_0B9_
FNDA:0,_RNCNvXs2_NtCs8vv7mWF5ug8_2vx3cliNtB7_8CommandsNtNtCs9dv23kYwsEz_12clap_builder6derive14FromArgMatches27update_from_arg_matches_mutsb_0B9_
FNDA:0,_RNCNvXs4_NtCs8vv7mWF5ug8_2vx3cliNtB7_13ConfigCommandNtNtCs9dv23kYwsEz_12clap_builder6derive14FromArgMatches20from_arg_matches_mut0B9_
FNDA:0,_RNCNvXs4_NtCs8vv7mWF5ug8_2vx3cliNtB7_13ConfigCommandNtNtCs9dv23kYwsEz_12clap_builder6derive14FromArgMatches20from_arg_matches_muts0_0B9_
FNDA:0,_RNCNvXs4_NtCs8vv7mWF5ug8_2vx3cliNtB7_13ConfigCommandNtNtCs9dv23kYwsEz_12clap_builder6derive14FromArgMatches20from_arg_matches_muts_0B9_
FNDA:0,_RNCNvXs4_NtCs8vv7mWF5ug8_2vx3cliNtB7_13ConfigCommandNtNtCs9dv23kYwsEz_12clap_builder6derive14FromArgMatches27update_from_arg_matches_mut0B9_
FNDA:0,_RNCNvXs4_NtCs8vv7mWF5ug8_2vx3cliNtB7_13ConfigCommandNtNtCs9dv23kYwsEz_12clap_builder6derive14FromArgMatches27update_from_arg_matches_muts0_0B9_
FNDA:0,_RNCNvXs4_NtCs8vv7mWF5ug8_2vx3cliNtB7_13ConfigCommandNtNtCs9dv23kYwsEz_12clap_builder6derive14FromArgMatches27update_from_arg_matches_muts_0B9_
FNDA:0,_RNCNvXs6_NtCs8vv7mWF5ug8_2vx3cliNtB7_13PluginCommandNtNtCs9dv23kYwsEz_12clap_builder6derive14FromArgMatches20from_arg_matches_mut0B9_
FNDA:0,_RNCNvXs6_NtCs8vv7mWF5ug8_2vx3cliNtB7_13PluginCommandNtNtCs9dv23kYwsEz_12clap_builder6derive14FromArgMatches20from_arg_matches_muts0_0B9_
FNDA:0,_RNCNvXs6_NtCs8vv7mWF5ug8_2vx3cliNtB7_13PluginCommandNtNtCs9dv23kYwsEz_12clap_builder6derive14FromArgMatches20from_arg_matches_muts1_0B9_
FNDA:0,_RNCNvXs6_NtCs8vv7mWF5ug8_2vx3cliNtB7_13PluginCommandNtNtCs9dv23kYwsEz_12clap_builder6derive14FromArgMatches20from_arg_matches_muts2_0B9_
FNDA:0,_RNCNvXs6_NtCs8vv7mWF5ug8_2vx3cliNtB7_13PluginCommandNtNtCs9dv23kYwsEz_12clap_builder6derive14FromArgMatches20from_arg_matches_muts_0B9_
FNDA:0,_RNCNvXs6_NtCs8vv7mWF5ug8_2vx3cliNtB7_13PluginCommandNtNtCs9dv23kYwsEz_12clap_builder6derive14FromArgMatches27update_from_arg_matches_mut0B9_
FNDA:0,_RNCNvXs6_NtCs8vv7mWF5ug8_2vx3cliNtB7_13PluginCommandNtNtCs9dv23kYwsEz_12clap_builder6derive14FromArgMatches27update_from_arg_matches_muts0_0B9_
FNDA:0,_RNCNvXs6_NtCs8vv7mWF5ug8_2vx3cliNtB7_13PluginCommandNtNtCs9dv23kYwsEz_12clap_builder6derive14FromArgMatches27update_from_arg_matches_muts1_0B9_
FNDA:0,_RNCNvXs6_NtCs8vv7mWF5ug8_2vx3cliNtB7_13PluginCommandNtNtCs9dv23kYwsEz_12clap_builder6derive14FromArgMatches27update_from_arg_matches_muts2_0B9_
FNDA:0,_RNCNvXs6_NtCs8vv7mWF5ug8_2vx3cliNtB7_13PluginCommandNtNtCs9dv23kYwsEz_12clap_builder6derive14FromArgMatches27update_from_arg_matches_muts_0B9_
FNF:25
FNH:0
DA:32,0
DA:36,0
DA:40,0
DA:54,0
DA:59,0
DA:68,0
DA:74,0
DA:79,0
DA:85,0
DA:88,0
DA:94,0
DA:100,0
DA:103,0
DA:106,0
DA:112,0
DA:118,0
DA:121,0
DA:156,0
DA:158,0
DA:163,0
DA:180,0
DA:188,0
DA:193,0
DA:198,0
DA:203,0
BRF:0
BRH:0
LF:25
LH:0
end_of_record
SF:C:\github\mcpx\src\cli\plugin.rs
FN:9,_RNCNCNvNtNtCse561JCZuupE_2vx3cli6plugin6handle00B9_
FN:80,_RNCNCNvNtNtCse561JCZuupE_2vx3cli6plugin6handle0s0_0B9_
FN:102,_RNCNCNvNtNtCse561JCZuupE_2vx3cli6plugin6handle0s1_0B9_
FN:103,_RNCNCNvNtNtCse561JCZuupE_2vx3cli6plugin6handle0s2_0B9_
FN:24,_RNCNCNvNtNtCse561JCZuupE_2vx3cli6plugin6handle0s_0B9_
FN:7,_RNCNvNtNtCse561JCZuupE_2vx3cli6plugin6handle0B7_
FN:7,_RNvNtNtCse561JCZuupE_2vx3cli6plugin6handle
FN:80,_RNCNCNvNtNtCs8vv7mWF5ug8_2vx3cli6plugin6handle0s0_0CsgEqbR8KZSOZ_2vx
FN:9,_RNCNCNvNtNtCs8vv7mWF5ug8_2vx3cli6plugin6handle00CsgEqbR8KZSOZ_2vx
FN:102,_RNCNCNvNtNtCs8vv7mWF5ug8_2vx3cli6plugin6handle0s1_0CsgEqbR8KZSOZ_2vx
FN:103,_RNCNCNvNtNtCs8vv7mWF5ug8_2vx3cli6plugin6handle0s2_0CsgEqbR8KZSOZ_2vx
FN:24,_RNCNCNvNtNtCs8vv7mWF5ug8_2vx3cli6plugin6handle0s_0CsgEqbR8KZSOZ_2vx
FN:7,_RNCNvNtNtCs8vv7mWF5ug8_2vx3cli6plugin6handle0CsgEqbR8KZSOZ_2vx
FN:7,_RNvNtNtCs8vv7mWF5ug8_2vx3cli6plugin6handle
FNDA:0,_RNCNCNvNtNtCse561JCZuupE_2vx3cli6plugin6handle00B9_
FNDA:0,_RNCNCNvNtNtCse561JCZuupE_2vx3cli6plugin6handle0s0_0B9_
FNDA:0,_RNCNCNvNtNtCse561JCZuupE_2vx3cli6plugin6handle0s1_0B9_
FNDA:0,_RNCNCNvNtNtCse561JCZuupE_2vx3cli6plugin6handle0s2_0B9_
FNDA:0,_RNCNCNvNtNtCse561JCZuupE_2vx3cli6plugin6handle0s_0B9_
FNDA:0,_RNCNvNtNtCse561JCZuupE_2vx3cli6plugin6handle0B7_
FNDA:0,_RNvNtNtCse561JCZuupE_2vx3cli6plugin6handle
FNDA:0,_RNCNCNvNtNtCs8vv7mWF5ug8_2vx3cli6plugin6handle0s0_0CsgEqbR8KZSOZ_2vx
FNDA:0,_RNCNCNvNtNtCs8vv7mWF5ug8_2vx3cli6plugin6handle00CsgEqbR8KZSOZ_2vx
FNDA:0,_RNCNCNvNtNtCs8vv7mWF5ug8_2vx3cli6plugin6handle0s1_0CsgEqbR8KZSOZ_2vx
FNDA:0,_RNCNCNvNtNtCs8vv7mWF5ug8_2vx3cli6plugin6handle0s2_0CsgEqbR8KZSOZ_2vx
FNDA:0,_RNCNCNvNtNtCs8vv7mWF5ug8_2vx3cli6plugin6handle0s_0CsgEqbR8KZSOZ_2vx
FNDA:0,_RNCNvNtNtCs8vv7mWF5ug8_2vx3cli6plugin6handle0CsgEqbR8KZSOZ_2vx
FNDA:0,_RNvNtNtCs8vv7mWF5ug8_2vx3cli6plugin6handle
FNF:7
FNH:0
DA:7,0
DA:8,0
DA:9,0
DA:11,0
DA:16,0
DA:17,0
DA:18,0
DA:19,0
DA:20,0
DA:21,0
DA:22,0
DA:23,0
DA:24,0
DA:25,0
DA:26,0
DA:27,0
DA:28,0
DA:29,0
DA:30,0
DA:32,0
DA:33,0
DA:34,0
DA:38,0
DA:39,0
DA:40,0
DA:41,0
DA:42,0
DA:44,0
DA:45,0
DA:46,0
DA:48,0
DA:49,0
DA:50,0
DA:52,0
DA:53,0
DA:54,0
DA:55,0
DA:57,0
DA:61,0
DA:62,0
DA:63,0
DA:66,0
DA:67,0
DA:68,0
DA:69,0
DA:71,0
DA:72,0
DA:73,0
DA:74,0
DA:76,0
DA:77,0
DA:78,0
DA:79,0
DA:80,0
DA:81,0
DA:82,0
DA:83,0
DA:84,0
DA:85,0
DA:86,0
DA:87,0
DA:88,0
DA:89,0
DA:90,0
DA:91,0
DA:92,0
DA:93,0
DA:94,0
DA:95,0
DA:99,0
DA:100,0
DA:101,0
DA:102,0
DA:103,0
DA:104,0
DA:105,0
DA:106,0
DA:107,0
DA:108,0
DA:109,0
DA:110,0
DA:113,0
DA:114,0
BRF:0
BRH:0
LF:90
LH:0
end_of_record
SF:C:\github\mcpx\src\cli\remove.rs
FN:6,_RNCNvNtNtCse561JCZuupE_2vx3cli6remove6handle0B7_
FN:6,_RNvNtNtCse561JCZuupE_2vx3cli6remove6handle
FN:6,_RNCNvNtNtCs8vv7mWF5ug8_2vx3cli6remove6handle0CsgEqbR8KZSOZ_2vx
FN:6,_RNvNtNtCs8vv7mWF5ug8_2vx3cli6remove6handle
FNDA:0,_RNCNvNtNtCse561JCZuupE_2vx3cli6remove6handle0B7_
FNDA:0,_RNvNtNtCse561JCZuupE_2vx3cli6remove6handle
FNDA:0,_RNCNvNtNtCs8vv7mWF5ug8_2vx3cli6remove6handle0CsgEqbR8KZSOZ_2vx
FNDA:0,_RNvNtNtCs8vv7mWF5ug8_2vx3cli6remove6handle
FNF:2
FNH:0
DA:6,0
DA:7,0
DA:9,0
DA:10,0
DA:11,0
DA:13,0
DA:16,0
DA:17,0
DA:18,0
DA:19,0
DA:20,0
DA:22,0
DA:23,0
DA:25,0
DA:28,0
DA:29,0
DA:30,0
DA:31,0
DA:32,0
DA:35,0
DA:36,0
DA:37,0
DA:41,0
DA:42,0
BRF:0
BRH:0
LF:25
LH:0
end_of_record
SF:C:\github\mcpx\src\cli\stats.rs
FN:117,_RNCNCNvNtNtCse561JCZuupE_2vx3cli5stats14show_all_stats00B9_
FN:13,_RNCNvNtNtCse561JCZuupE_2vx3cli5stats14handle_cleanup0B7_
FN:85,_RNCNvNtNtCse561JCZuupE_2vx3cli5stats14show_all_stats0B7_
FN:47,_RNCNvNtNtCse561JCZuupE_2vx3cli5stats15show_tool_stats0B7_
FN:6,_RNCNvNtNtCse561JCZuupE_2vx3cli5stats6handle0B7_
FN:150,_RNvNtNtCse561JCZuupE_2vx3cli5stats11format_size
FN:13,_RNvNtNtCse561JCZuupE_2vx3cli5stats14handle_cleanup
FN:85,_RNvNtNtCse561JCZuupE_2vx3cli5stats14show_all_stats
FN:47,_RNvNtNtCse561JCZuupE_2vx3cli5stats15show_tool_stats
FN:133,_RNvNtNtCse561JCZuupE_2vx3cli5stats24calculate_directory_size
FN:6,_RNvNtNtCse561JCZuupE_2vx3cli5stats6handle
FN:117,_RNCNCNvNtNtCs8vv7mWF5ug8_2vx3cli5stats14show_all_stats00CsgEqbR8KZSOZ_2vx
FN:13,_RNCNvNtNtCs8vv7mWF5ug8_2vx3cli5stats14handle_cleanup0CsgEqbR8KZSOZ_2vx
FN:85,_RNCNvNtNtCs8vv7mWF5ug8_2vx3cli5stats14show_all_stats0CsgEqbR8KZSOZ_2vx
FN:47,_RNCNvNtNtCs8vv7mWF5ug8_2vx3cli5stats15show_tool_stats0CsgEqbR8KZSOZ_2vx
FN:6,_RNCNvNtNtCs8vv7mWF5ug8_2vx3cli5stats6handle0CsgEqbR8KZSOZ_2vx
FN:150,_RNvNtNtCs8vv7mWF5ug8_2vx3cli5stats11format_size
FN:13,_RNvNtNtCs8vv7mWF5ug8_2vx3cli5stats14handle_cleanup
FN:85,_RNvNtNtCs8vv7mWF5ug8_2vx3cli5stats14show_all_stats
FN:47,_RNvNtNtCs8vv7mWF5ug8_2vx3cli5stats15show_tool_stats
FN:133,_RNvNtNtCs8vv7mWF5ug8_2vx3cli5stats24calculate_directory_size
FN:6,_RNvNtNtCs8vv7mWF5ug8_2vx3cli5stats6handle
FNDA:0,_RNCNCNvNtNtCse561JCZuupE_2vx3cli5stats14show_all_stats00B9_
FNDA:0,_RNCNvNtNtCse561JCZuupE_2vx3cli5stats14handle_cleanup0B7_
FNDA:0,_RNCNvNtNtCse561JCZuupE_2vx3cli5stats14show_all_stats0B7_
FNDA:0,_RNCNvNtNtCse561JCZuupE_2vx3cli5stats15show_tool_stats0B7_
FNDA:0,_RNCNvNtNtCse561JCZuupE_2vx3cli5stats6handle0B7_
FNDA:0,_RNvNtNtCse561JCZuupE_2vx3cli5stats11format_size
FNDA:0,_RNvNtNtCse561JCZuupE_2vx3cli5stats14handle_cleanup
FNDA:0,_RNvNtNtCse561JCZuupE_2vx3cli5stats14show_all_stats
FNDA:0,_RNvNtNtCse561JCZuupE_2vx3cli5stats15show_tool_stats
FNDA:0,_RNvNtNtCse561JCZuupE_2vx3cli5stats24calculate_directory_size
FNDA:0,_RNvNtNtCse561JCZuupE_2vx3cli5stats6handle
FNDA:0,_RNCNCNvNtNtCs8vv7mWF5ug8_2vx3cli5stats14show_all_stats00CsgEqbR8KZSOZ_2vx
FNDA:0,_RNCNvNtNtCs8vv7mWF5ug8_2vx3cli5stats14handle_cleanup0CsgEqbR8KZSOZ_2vx
FNDA:0,_RNCNvNtNtCs8vv7mWF5ug8_2vx3cli5stats14show_all_stats0CsgEqbR8KZSOZ_2vx
FNDA:0,_RNCNvNtNtCs8vv7mWF5ug8_2vx3cli5stats15show_tool_stats0CsgEqbR8KZSOZ_2vx
FNDA:0,_RNCNvNtNtCs8vv7mWF5ug8_2vx3cli5stats6handle0CsgEqbR8KZSOZ_2vx
FNDA:0,_RNvNtNtCs8vv7mWF5ug8_2vx3cli5stats11format_size
FNDA:0,_RNvNtNtCs8vv7mWF5ug8_2vx3cli5stats14handle_cleanup
FNDA:0,_RNvNtNtCs8vv7mWF5ug8_2vx3cli5stats14show_all_stats
FNDA:0,_RNvNtNtCs8vv7mWF5ug8_2vx3cli5stats15show_tool_stats
FNDA:0,_RNvNtNtCs8vv7mWF5ug8_2vx3cli5stats24calculate_directory_size
FNDA:0,_RNvNtNtCs8vv7mWF5ug8_2vx3cli5stats6handle
FNF:11
FNH:0
DA:6,0
DA:7,0
DA:8,0
DA:9,0
DA:11,0
DA:13,0
DA:14,0
DA:15,0
DA:16,0
DA:17,0
DA:18,0
DA:20,0
DA:22,0
DA:23,0
DA:24,0
DA:25,0
DA:26,0
DA:27,0
DA:28,0
DA:29,0
DA:31,0
DA:32,0
DA:33,0
DA:34,0
DA:35,0
DA:36,0
DA:38,0
DA:40,0
DA:41,0
DA:42,0
DA:44,0
DA:45,0
DA:47,0
DA:48,0
DA:50,0
DA:51,0
DA:52,0
DA:53,0
DA:54,0
DA:55,0
DA:56,0
DA:57,0
DA:58,0
DA:59,0
DA:60,0
DA:61,0
DA:62,0
DA:63,0
DA:64,0
DA:65,0
DA:66,0
DA:67,0
DA:68,0
DA:70,0
DA:72,0
DA:73,0
DA:74,0
DA:75,0
DA:79,0
DA:80,0
DA:81,0
DA:82,0
DA:83,0
DA:85,0
DA:86,0
DA:87,0
DA:88,0
DA:89,0
DA:90,0
DA:91,0
DA:92,0
DA:93,0
DA:94,0
DA:95,0
DA:96,0
DA:97,0
DA:98,0
DA:99,0
DA:102,0
DA:103,0
DA:104,0
DA:105,0
DA:106,0
DA:107,0
DA:108,0
DA:109,0
DA:110,0
DA:111,0
DA:112,0
DA:113,0
DA:114,0
DA:115,0
DA:116,0
DA:117,0
DA:118,0
DA:119,0
DA:120,0
DA:121,0
DA:122,0
DA:123,0
DA:124,0
DA:125,0
DA:126,0
DA:127,0
DA:128,0
DA:130,0
DA:131,0
DA:133,0
DA:134,0
DA:135,0
DA:136,0
DA:137,0
DA:138,0
DA:139,0
DA:140,0
DA:141,0
DA:142,0
DA:144,0
DA:146,0
DA:148,0
DA:150,0
DA:152,0
DA:153,0
DA:155,0
DA:156,0
DA:157,0
DA:158,0
DA:160,0
DA:161,0
DA:163,0
DA:165,0
BRF:0
BRH:0
LF:137
LH:0
end_of_record
SF:C:\github\mcpx\src\cli\switch.rs
FN:6,_RNCNvNtNtCse561JCZuupE_2vx3cli6switch6handle0B7_
FN:6,_RNvNtNtCse561JCZuupE_2vx3cli6switch6handle
FN:6,_RNCNvNtNtCs8vv7mWF5ug8_2vx3cli6switch6handle0CsgEqbR8KZSOZ_2vx
FN:6,_RNvNtNtCs8vv7mWF5ug8_2vx3cli6switch6handle
FNDA:0,_RNCNvNtNtCse561JCZuupE_2vx3cli6switch6handle0B7_
FNDA:0,_RNvNtNtCse561JCZuupE_2vx3cli6switch6handle
FNDA:0,_RNCNvNtNtCs8vv7mWF5ug8_2vx3cli6switch6handle0CsgEqbR8KZSOZ_2vx
FNDA:0,_RNvNtNtCs8vv7mWF5ug8_2vx3cli6switch6handle
FNF:2
FNH:0
DA:6,0
DA:7,0
DA:8,0
DA:9,0
DA:10,0
DA:11,0
DA:12,0
DA:13,0
DA:14,0
DA:15,0
DA:16,0
DA:17,0
DA:18,0
DA:19,0
DA:21,0
DA:22,0
DA:24,0
DA:25,0
DA:26,0
DA:27,0
DA:28,0
DA:29,0
DA:30,0
DA:31,0
DA:32,0
DA:34,0
DA:35,0
DA:36,0
DA:37,0
DA:41,0
DA:42,0
BRF:0
BRH:0
LF:32
LH:0
end_of_record
SF:C:\github\mcpx\src\cli\update.rs
FN:40,_RNCNCNCNvNtNtCse561JCZuupE_2vx3cli6update11update_tool0s0_00Bb_
FN:99,_RNCNCNCNvNtNtCse561JCZuupE_2vx3cli6update11update_tool0s1_00Bb_
FN:48,_RNCNCNvNtNtCse561JCZuupE_2vx3cli6update11update_tool00B9_
FN:74,_RNCNCNvNtNtCse561JCZuupE_2vx3cli6update11update_tool0s_0B9_
FN:27,_RNCNvNtNtCse561JCZuupE_2vx3cli6update11update_tool0B7_
FN:121,_RNCNvNtNtCse561JCZuupE_2vx3cli6update16update_all_tools0B7_
FN:182,_RNCNvNtNtCse561JCZuupE_2vx3cli6update17check_all_updates0B7_
FN:156,_RNCNvNtNtCse561JCZuupE_2vx3cli6update18check_tool_updates0B7_
FN:264,_RNCNvNtNtCse561JCZuupE_2vx3cli6update18get_latest_version0B7_
FN:245,_RNCNvNtNtCse561JCZuupE_2vx3cli6update19get_current_version0B7_
FN:8,_RNCNvNtNtCse561JCZuupE_2vx3cli6update6handle0B7_
FN:27,_RNvNtNtCse561JCZuupE_2vx3cli6update11update_tool
FN:121,_RNvNtNtCse561JCZuupE_2vx3cli6update16update_all_tools
FN:182,_RNvNtNtCse561JCZuupE_2vx3cli6update17check_all_updates
FN:156,_RNvNtNtCse561JCZuupE_2vx3cli6update18check_tool_updates
FN:264,_RNvNtNtCse561JCZuupE_2vx3cli6update18get_latest_version
FN:245,_RNvNtNtCse561JCZuupE_2vx3cli6update19get_current_version
FN:8,_RNvNtNtCse561JCZuupE_2vx3cli6update6handle
FN:74,_RNCNCNvNtNtCs8vv7mWF5ug8_2vx3cli6update11update_tool0s_0CsgEqbR8KZSOZ_2vx
FN:40,_RNCNCNCNvNtNtCs8vv7mWF5ug8_2vx3cli6update11update_tool0s0_00CsgEqbR8KZSOZ_2vx
FN:99,_RNCNCNCNvNtNtCs8vv7mWF5ug8_2vx3cli6update11update_tool0s1_00CsgEqbR8KZSOZ_2vx
FN:48,_RNCNCNvNtNtCs8vv7mWF5ug8_2vx3cli6update11update_tool00CsgEqbR8KZSOZ_2vx
FN:27,_RNCNvNtNtCs8vv7mWF5ug8_2vx3cli6update11update_tool0CsgEqbR8KZSOZ_2vx
FN:121,_RNCNvNtNtCs8vv7mWF5ug8_2vx3cli6update16update_all_tools0CsgEqbR8KZSOZ_2vx
FN:182,_RNCNvNtNtCs8vv7mWF5ug8_2vx3cli6update17check_all_updates0CsgEqbR8KZSOZ_2vx
FN:156,_RNCNvNtNtCs8vv7mWF5ug8_2vx3cli6update18check_tool_updates0CsgEqbR8KZSOZ_2vx
FN:264,_RNCNvNtNtCs8vv7mWF5ug8_2vx3cli6update18get_latest_version0CsgEqbR8KZSOZ_2vx
FN:245,_RNCNvNtNtCs8vv7mWF5ug8_2vx3cli6update19get_current_version0CsgEqbR8KZSOZ_2vx
FN:8,_RNCNvNtNtCs8vv7mWF5ug8_2vx3cli6update6handle0CsgEqbR8KZSOZ_2vx
FN:27,_RNvNtNtCs8vv7mWF5ug8_2vx3cli6update11update_tool
FN:121,_RNvNtNtCs8vv7mWF5ug8_2vx3cli6update16update_all_tools
FN:182,_RNvNtNtCs8vv7mWF5ug8_2vx3cli6update17check_all_updates
FN:156,_RNvNtNtCs8vv7mWF5ug8_2vx3cli6update18check_tool_updates
FN:264,_RNvNtNtCs8vv7mWF5ug8_2vx3cli6update18get_latest_version
FN:245,_RNvNtNtCs8vv7mWF5ug8_2vx3cli6update19get_current_version
FN:8,_RNvNtNtCs8vv7mWF5ug8_2vx3cli6update6handle
FNDA:0,_RNCNCNCNvNtNtCse561JCZuupE_2vx3cli6update11update_tool0s0_00Bb_
FNDA:0,_RNCNCNCNvNtNtCse561JCZuupE_2vx3cli6update11update_tool0s1_00Bb_
FNDA:0,_RNCNCNvNtNtCse561JCZuupE_2vx3cli6update11update_tool00B9_
FNDA:0,_RNCNCNvNtNtCse561JCZuupE_2vx3cli6update11update_tool0s_0B9_
FNDA:0,_RNCNvNtNtCse561JCZuupE_2vx3cli6update11update_tool0B7_
FNDA:0,_RNCNvNtNtCse561JCZuupE_2vx3cli6update16update_all_tools0B7_
FNDA:0,_RNCNvNtNtCse561JCZuupE_2vx3cli6update17check_all_updates0B7_
FNDA:0,_RNCNvNtNtCse561JCZuupE_2vx3cli6update18check_tool_updates0B7_
FNDA:0,_RNCNvNtNtCse561JCZuupE_2vx3cli6update18get_latest_version0B7_
FNDA:0,_RNCNvNtNtCse561JCZuupE_2vx3cli6update19get_current_version0B7_
FNDA:0,_RNCNvNtNtCse561JCZuupE_2vx3cli6update6handle0B7_
FNDA:0,_RNvNtNtCse561JCZuupE_2vx3cli6update11update_tool
FNDA:0,_RNvNtNtCse561JCZuupE_2vx3cli6update16update_all_tools
FNDA:0,_RNvNtNtCse561JCZuupE_2vx3cli6update17check_all_updates
FNDA:0,_RNvNtNtCse561JCZuupE_2vx3cli6update18check_tool_updates
FNDA:0,_RNvNtNtCse561JCZuupE_2vx3cli6update18get_latest_version
FNDA:0,_RNvNtNtCse561JCZuupE_2vx3cli6update19get_current_version
FNDA:0,_RNvNtNtCse561JCZuupE_2vx3cli6update6handle
FNDA:0,_RNCNCNvNtNtCs8vv7mWF5ug8_2vx3cli6update11update_tool0s_0CsgEqbR8KZSOZ_2vx
FNDA:0,_RNCNCNCNvNtNtCs8vv7mWF5ug8_2vx3cli6update11update_tool0s0_00CsgEqbR8KZSOZ_2vx
FNDA:0,_RNCNCNCNvNtNtCs8vv7mWF5ug8_2vx3cli6update11update_tool0s1_00CsgEqbR8KZSOZ_2vx
FNDA:0,_RNCNCNvNtNtCs8vv7mWF5ug8_2vx3cli6update11update_tool00CsgEqbR8KZSOZ_2vx
FNDA:0,_RNCNvNtNtCs8vv7mWF5ug8_2vx3cli6update11update_tool0CsgEqbR8KZSOZ_2vx
FNDA:0,_RNCNvNtNtCs8vv7mWF5ug8_2vx3cli6update16update_all_tools0CsgEqbR8KZSOZ_2vx
FNDA:0,_RNCNvNtNtCs8vv7mWF5ug8_2vx3cli6update17check_all_updates0CsgEqbR8KZSOZ_2vx
FNDA:0,_RNCNvNtNtCs8vv7mWF5ug8_2vx3cli6update18check_tool_updates0CsgEqbR8KZSOZ_2vx
FNDA:0,_RNCNvNtNtCs8vv7mWF5ug8_2vx3cli6update18get_latest_version0CsgEqbR8KZSOZ_2vx
FNDA:0,_RNCNvNtNtCs8vv7mWF5ug8_2vx3cli6update19get_current_version0CsgEqbR8KZSOZ_2vx
FNDA:0,_RNCNvNtNtCs8vv7mWF5ug8_2vx3cli6update6handle0CsgEqbR8KZSOZ_2vx
FNDA:0,_RNvNtNtCs8vv7mWF5ug8_2vx3cli6update11update_tool
FNDA:0,_RNvNtNtCs8vv7mWF5ug8_2vx3cli6update16update_all_tools
FNDA:0,_RNvNtNtCs8vv7mWF5ug8_2vx3cli6update17check_all_updates
FNDA:0,_RNvNtNtCs8vv7mWF5ug8_2vx3cli6update18check_tool_updates
FNDA:0,_RNvNtNtCs8vv7mWF5ug8_2vx3cli6update18get_latest_version
FNDA:0,_RNvNtNtCs8vv7mWF5ug8_2vx3cli6update19get_current_version
FNDA:0,_RNvNtNtCs8vv7mWF5ug8_2vx3cli6update6handle
FNF:18
FNH:0
DA:8,0
DA:9,0
DA:10,0
DA:11,0
DA:12,0
DA:14,0
DA:18,0
DA:19,0
DA:21,0
DA:25,0
DA:27,0
DA:28,0
DA:30,0
DA:31,0
DA:32,0
DA:33,0
DA:34,0
DA:35,0
DA:36,0
DA:37,0
DA:40,0
DA:41,0
DA:42,0
DA:43,0
DA:44,0
DA:45,0
DA:48,0
DA:50,0
DA:51,0
DA:53,0
DA:57,0
DA:58,0
DA:59,0
DA:60,0
DA:61,0
DA:62,0
DA:63,0
DA:64,0
DA:65,0
DA:66,0
DA:67,0
DA:69,0
DA:70,0
DA:71,0
DA:72,0
DA:73,0
DA:74,0
DA:75,0
DA:76,0
DA:77,0
DA:78,0
DA:79,0
DA:80,0
DA:81,0
DA:82,0
DA:83,0
DA:84,0
DA:86,0
DA:87,0
DA:88,0
DA:89,0
DA:90,0
DA:91,0
DA:92,0
DA:95,0
DA:96,0
DA:97,0
DA:98,0
DA:99,0
DA:100,0
DA:101,0
DA:102,0
DA:103,0
DA:104,0
DA:105,0
DA:106,0
DA:108,0
DA:109,0
DA:110,0
DA:111,0
DA:112,0
DA:113,0
DA:114,0
DA:115,0
DA:116,0
DA:118,0
DA:119,0
DA:121,0
DA:122,0
DA:124,0
DA:125,0
DA:127,0
DA:128,0
DA:129,0
DA:130,0
DA:131,0
DA:132,0
DA:133,0
DA:135,0
DA:136,0
DA:137,0
DA:138,0
DA:139,0
DA:140,0
DA:141,0
DA:142,0
DA:146,0
DA:147,0
DA:148,0
DA:149,0
DA:150,0
DA:151,0
DA:153,0
DA:154,0
DA:156,0
DA:157,0
DA:159,0
DA:160,0
DA:162,0
DA:163,0
DA:164,0
DA:165,0
DA:166,0
DA:167,0
DA:168,0
DA:169,0
DA:170,0
DA:171,0
DA:173,0
DA:174,0
DA:175,0
DA:176,0
DA:179,0
DA:180,0
DA:182,0
DA:183,0
DA:185,0
DA:186,0
DA:188,0
DA:189,0
DA:190,0
DA:191,0
DA:192,0
DA:193,0
DA:194,0
DA:195,0
DA:197,0
DA:199,0
DA:200,0
DA:202,0
DA:203,0
DA:204,0
DA:205,0
DA:206,0
DA:207,0
DA:209,0
DA:210,0
DA:211,0
DA:212,0
DA:213,0
DA:214,0
DA:218,0
DA:219,0
DA:220,0
DA:221,0
DA:222,0
DA:223,0
DA:224,0
DA:225,0
DA:226,0
DA:228,0
DA:229,0
DA:230,0
DA:231,0
DA:232,0
DA:233,0
DA:235,0
DA:236,0
DA:237,0
DA:238,0
DA:239,0
DA:240,0
DA:242,0
DA:243,0
DA:245,0
DA:247,0
DA:248,0
DA:249,0
DA:251,0
DA:252,0
DA:253,0
DA:254,0
DA:256,0
DA:257,0
DA:258,0
DA:259,0
DA:261,0
DA:262,0
DA:264,0
DA:265,0
DA:266,0
DA:267,0
DA:268,0
DA:270,0
DA:271,0
DA:272,0
DA:274,0
DA:277,0
DA:279,0
DA:282,0
DA:284,0
DA:285,0
DA:286,0
DA:287,0
DA:289,0
BRF:0
BRH:0
LF:235
LH:0
end_of_record
SF:C:\github\mcpx\src\cli\use_cmd.rs
FN:6,_RNCNvNtNtCse561JCZuupE_2vx3cli7use_cmd6handle0B7_
FN:6,_RNvNtNtCse561JCZuupE_2vx3cli7use_cmd6handle
FN:6,_RNCNvNtNtCs8vv7mWF5ug8_2vx3cli7use_cmd6handle0CsgEqbR8KZSOZ_2vx
FN:6,_RNvNtNtCs8vv7mWF5ug8_2vx3cli7use_cmd6handle
FNDA:0,_RNCNvNtNtCse561JCZuupE_2vx3cli7use_cmd6handle0B7_
FNDA:0,_RNvNtNtCse561JCZuupE_2vx3cli7use_cmd6handle
FNDA:0,_RNCNvNtNtCs8vv7mWF5ug8_2vx3cli7use_cmd6handle0CsgEqbR8KZSOZ_2vx
FNDA:0,_RNvNtNtCs8vv7mWF5ug8_2vx3cli7use_cmd6handle
FNF:2
FNH:0
DA:6,0
DA:7,0
DA:8,0
DA:9,0
DA:10,0
DA:11,0
DA:12,0
BRF:0
BRH:0
LF:8
LH:0
end_of_record
SF:C:\github\mcpx\src\cli\venv_cmd.rs
FN:91,_RNCNvNtNtCse561JCZuupE_2vx3cli8venv_cmd10list_venvs0B7_
FN:58,_RNCNvNtNtCse561JCZuupE_2vx3cli8venv_cmd11create_venv0B7_
FN:163,_RNCNvNtNtCse561JCZuupE_2vx3cli8venv_cmd11remove_venv0B7_
FN:118,_RNCNvNtNtCse561JCZuupE_2vx3cli8venv_cmd13activate_venv0B7_
FN:145,_RNCNvNtNtCse561JCZuupE_2vx3cli8venv_cmd15deactivate_venv0B7_
FN:195,_RNCNvNtNtCse561JCZuupE_2vx3cli8venv_cmd17show_current_venv0B7_
FN:45,_RNCNvNtNtCse561JCZuupE_2vx3cli8venv_cmd19handle_venv_command0B7_
FN:19,_RNCNvXs0_NtNtCse561JCZuupE_2vx3cli8venv_cmdNtB7_11VenvCommandNtNtCs9dv23kYwsEz_12clap_builder6derive14FromArgMatches20from_arg_matches_mut0Bb_
FN:29,_RNCNvXs0_NtNtCse561JCZuupE_2vx3cli8venv_cmdNtB7_11VenvCommandNtNtCs9dv23kYwsEz_12clap_builder6derive14FromArgMatches20from_arg_matches_muts0_0Bb_
FN:36,_RNCNvXs0_NtNtCse561JCZuupE_2vx3cli8venv_cmdNtB7_11VenvCommandNtNtCs9dv23kYwsEz_12clap_builder6derive14FromArgMatches20from_arg_matches_muts1_0Bb_
FN:39,_RNCNvXs0_NtNtCse561JCZuupE_2vx3cli8venv_cmdNtB7_11VenvCommandNtNtCs9dv23kYwsEz_12clap_builder6derive14FromArgMatches20from_arg_matches_muts2_0Bb_
FN:22,_RNCNvXs0_NtNtCse561JCZuupE_2vx3cli8venv_cmdNtB7_11VenvCommandNtNtCs9dv23kYwsEz_12clap_builder6derive14FromArgMatches20from_arg_matches_muts_0Bb_
FN:19,_RNCNvXs0_NtNtCse561JCZuupE_2vx3cli8venv_cmdNtB7_11VenvCommandNtNtCs9dv23kYwsEz_12clap_builder6derive14FromArgMatches27update_from_arg_matches_mut0Bb_
FN:29,_RNCNvXs0_NtNtCse561JCZuupE_2vx3cli8venv_cmdNtB7_11VenvCommandNtNtCs9dv23kYwsEz_12clap_builder6derive14FromArgMatches27update_from_arg_matches_muts0_0Bb_
FN:36,_RNCNvXs0_NtNtCse561JCZuupE_2vx3cli8venv_cmdNtB7_11VenvCommandNtNtCs9dv23kYwsEz_12clap_builder6derive14FromArgMatches27update_from_arg_matches_muts1_0Bb_
FN:39,_RNCNvXs0_NtNtCse561JCZuupE_2vx3cli8venv_cmdNtB7_11VenvCommandNtNtCs9dv23kYwsEz_12clap_builder6derive14FromArgMatches27update_from_arg_matches_muts2_0Bb_
FN:22,_RNCNvXs0_NtNtCse561JCZuupE_2vx3cli8venv_cmdNtB7_11VenvCommandNtNtCs9dv23kYwsEz_12clap_builder6derive14FromArgMatches27update_from_arg_matches_muts_0Bb_
FN:91,_RNvNtNtCse561JCZuupE_2vx3cli8venv_cmd10list_venvs
FN:58,_RNvNtNtCse561JCZuupE_2vx3cli8venv_cmd11create_venv
FN:163,_RNvNtNtCse561JCZuupE_2vx3cli8venv_cmd11remove_venv
FN:118,_RNvNtNtCse561JCZuupE_2vx3cli8venv_cmd13activate_venv
FN:145,_RNvNtNtCse561JCZuupE_2vx3cli8venv_cmd15deactivate_venv
FN:195,_RNvNtNtCse561JCZuupE_2vx3cli8venv_cmd17show_current_venv
FN:45,_RNvNtNtCse561JCZuupE_2vx3cli8venv_cmd19handle_venv_command
FN:91,_RNCNvNtNtCs8vv7mWF5ug8_2vx3cli8venv_cmd10list_venvs0CsgEqbR8KZSOZ_2vx
FN:58,_RNCNvNtNtCs8vv7mWF5ug8_2vx3cli8venv_cmd11create_venv0CsgEqbR8KZSOZ_2vx
FN:163,_RNCNvNtNtCs8vv7mWF5ug8_2vx3cli8venv_cmd11remove_venv0CsgEqbR8KZSOZ_2vx
FN:118,_RNCNvNtNtCs8vv7mWF5ug8_2vx3cli8venv_cmd13activate_venv0CsgEqbR8KZSOZ_2vx
FN:145,_RNCNvNtNtCs8vv7mWF5ug8_2vx3cli8venv_cmd15deactivate_venv0CsgEqbR8KZSOZ_2vx
FN:195,_RNCNvNtNtCs8vv7mWF5ug8_2vx3cli8venv_cmd17show_current_venv0CsgEqbR8KZSOZ_2vx
FN:45,_RNCNvNtNtCs8vv7mWF5ug8_2vx3cli8venv_cmd19handle_venv_command0CsgEqbR8KZSOZ_2vx
FN:19,_RNCNvXs0_NtNtCs8vv7mWF5ug8_2vx3cli8venv_cmdNtB7_11VenvCommandNtNtCs9dv23kYwsEz_12clap_builder6derive14FromArgMatches20from_arg_matches_mut0Bb_
FN:29,_RNCNvXs0_NtNtCs8vv7mWF5ug8_2vx3cli8venv_cmdNtB7_11VenvCommandNtNtCs9dv23kYwsEz_12clap_builder6derive14FromArgMatches20from_arg_matches_muts0_0Bb_
FN:36,_RNCNvXs0_NtNtCs8vv7mWF5ug8_2vx3cli8venv_cmdNtB7_11VenvCommandNtNtCs9dv23kYwsEz_12clap_builder6derive14FromArgMatches20from_arg_matches_muts1_0Bb_
FN:39,_RNCNvXs0_NtNtCs8vv7mWF5ug8_2vx3cli8venv_cmdNtB7_11VenvCommandNtNtCs9dv23kYwsEz_12clap_builder6derive14FromArgMatches20from_arg_matches_muts2_0Bb_
FN:22,_RNCNvXs0_NtNtCs8vv7mWF5ug8_2vx3cli8venv_cmdNtB7_11VenvCommandNtNtCs9dv23kYwsEz_12clap_builder6derive14FromArgMatches20from_arg_matches_muts_0Bb_
FN:19,_RNCNvXs0_NtNtCs8vv7mWF5ug8_2vx3cli8venv_cmdNtB7_11VenvCommandNtNtCs9dv23kYwsEz_12clap_builder6derive14FromArgMatches27update_from_arg_matches_mut0Bb_
FN:29,_RNCNvXs0_NtNtCs8vv7mWF5ug8_2vx3cli8venv_cmdNtB7_11VenvCommandNtNtCs9dv23kYwsEz_12clap_builder6derive14FromArgMatches27update_from_arg_matches_muts0_0Bb_
FN:36,_RNCNvXs0_NtNtCs8vv7mWF5ug8_2vx3cli8venv_cmdNtB7_11VenvCommandNtNtCs9dv23kYwsEz_12clap_builder6derive14FromArgMatches27update_from_arg_matches_muts1_0Bb_
FN:39,_RNCNvXs0_NtNtCs8vv7mWF5ug8_2vx3cli8venv_cmdNtB7_11VenvCommandNtNtCs9dv23kYwsEz_12clap_builder6derive14FromArgMatches27update_from_arg_matches_muts2_0Bb_
FN:22,_RNCNvXs0_NtNtCs8vv7mWF5ug8_2vx3cli8venv_cmdNtB7_11VenvCommandNtNtCs9dv23kYwsEz_12clap_builder6derive14FromArgMatches27update_from_arg_matches_muts_0Bb_
FN:91,_RNvNtNtCs8vv7mWF5ug8_2vx3cli8venv_cmd10list_venvs
FN:58,_RNvNtNtCs8vv7mWF5ug8_2vx3cli8venv_cmd11create_venv
FN:163,_RNvNtNtCs8vv7mWF5ug8_2vx3cli8venv_cmd11remove_venv
FN:118,_RNvNtNtCs8vv7mWF5ug8_2vx3cli8venv_cmd13activate_venv
FN:145,_RNvNtNtCs8vv7mWF5ug8_2vx3cli8venv_cmd15deactivate_venv
FN:195,_RNvNtNtCs8vv7mWF5ug8_2vx3cli8venv_cmd17show_current_venv
FN:45,_RNvNtNtCs8vv7mWF5ug8_2vx3cli8venv_cmd19handle_venv_command
FNDA:0,_RNCNvNtNtCse561JCZuupE_2vx3cli8venv_cmd10list_venvs0B7_
FNDA:0,_RNCNvNtNtCse561JCZuupE_2vx3cli8venv_cmd11create_venv0B7_
FNDA:0,_RNCNvNtNtCse561JCZuupE_2vx3cli8venv_cmd11remove_venv0B7_
FNDA:0,_RNCNvNtNtCse561JCZuupE_2vx3cli8venv_cmd13activate_venv0B7_
FNDA:0,_RNCNvNtNtCse561JCZuupE_2vx3cli8venv_cmd15deactivate_venv0B7_
FNDA:0,_RNCNvNtNtCse561JCZuupE_2vx3cli8venv_cmd17show_current_venv0B7_
FNDA:0,_RNCNvNtNtCse561JCZuupE_2vx3cli8venv_cmd19handle_venv_command0B7_
FNDA:0,_RNCNvXs0_NtNtCse561JCZuupE_2vx3cli8venv_cmdNtB7_11VenvCommandNtNtCs9dv23kYwsEz_12clap_builder6derive14FromArgMatches20from_arg_matches_mut0Bb_
FNDA:0,_RNCNvXs0_NtNtCse561JCZuupE_2vx3cli8venv_cmdNtB7_11VenvCommandNtNtCs9dv23kYwsEz_12clap_builder6derive14FromArgMatches20from_arg_matches_muts0_0Bb_
FNDA:0,_RNCNvXs0_NtNtCse561JCZuupE_2vx3cli8venv_cmdNtB7_11VenvCommandNtNtCs9dv23kYwsEz_12clap_builder6derive14FromArgMatches20from_arg_matches_muts1_0Bb_
FNDA:0,_RNCNvXs0_NtNtCse561JCZuupE_2vx3cli8venv_cmdNtB7_11VenvCommandNtNtCs9dv23kYwsEz_12clap_builder6derive14FromArgMatches20from_arg_matches_muts2_0Bb_
FNDA:0,_RNCNvXs0_NtNtCse561JCZuupE_2vx3cli8venv_cmdNtB7_11VenvCommandNtNtCs9dv23kYwsEz_12clap_builder6derive14FromArgMatches20from_arg_matches_muts_0Bb_
FNDA:0,_RNCNvXs0_NtNtCse561JCZuupE_2vx3cli8venv_cmdNtB7_11VenvCommandNtNtCs9dv23kYwsEz_12clap_builder6derive14FromArgMatches27update_from_arg_matches_mut0Bb_
FNDA:0,_RNCNvXs0_NtNtCse561JCZuupE_2vx3cli8venv_cmdNtB7_11VenvCommandNtNtCs9dv23kYwsEz_12clap_builder6derive14FromArgMatches27update_from_arg_matches_muts0_0Bb_
FNDA:0,_RNCNvXs0_NtNtCse561JCZuupE_2vx3cli8venv_cmdNtB7_11VenvCommandNtNtCs9dv23kYwsEz_12clap_builder6derive14FromArgMatches27update_from_arg_matches_muts1_0Bb_
FNDA:0,_RNCNvXs0_NtNtCse561JCZuupE_2vx3cli8venv_cmdNtB7_11VenvCommandNtNtCs9dv23kYwsEz_12clap_builder6derive14FromArgMatches27update_from_arg_matches_muts2_0Bb_
FNDA:0,_RNCNvXs0_NtNtCse561JCZuupE_2vx3cli8venv_cmdNtB7_11VenvCommandNtNtCs9dv23kYwsEz_12clap_builder6derive14FromArgMatches27update_from_arg_matches_muts_0Bb_
FNDA:0,_RNvNtNtCse561JCZuupE_2vx3cli8venv_cmd10list_venvs
FNDA:0,_RNvNtNtCse561JCZuupE_2vx3cli8venv_cmd11create_venv
FNDA:0,_RNvNtNtCse561JCZuupE_2vx3cli8venv_cmd11remove_venv
FNDA:0,_RNvNtNtCse561JCZuupE_2vx3cli8venv_cmd13activate_venv
FNDA:0,_RNvNtNtCse561JCZuupE_2vx3cli8venv_cmd15deactivate_venv
FNDA:0,_RNvNtNtCse561JCZuupE_2vx3cli8venv_cmd17show_current_venv
FNDA:0,_RNvNtNtCse561JCZuupE_2vx3cli8venv_cmd19handle_venv_command
FNDA:0,_RNCNvNtNtCs8vv7mWF5ug8_2vx3cli8venv_cmd10list_venvs0CsgEqbR8KZSOZ_2vx
FNDA:0,_RNCNvNtNtCs8vv7mWF5ug8_2vx3cli8venv_cmd11create_venv0CsgEqbR8KZSOZ_2vx
FNDA:0,_RNCNvNtNtCs8vv7mWF5ug8_2vx3cli8venv_cmd11remove_venv0CsgEqbR8KZSOZ_2vx
FNDA:0,_RNCNvNtNtCs8vv7mWF5ug8_2vx3cli8venv_cmd13activate_venv0CsgEqbR8KZSOZ_2vx
FNDA:0,_RNCNvNtNtCs8vv7mWF5ug8_2vx3cli8venv_cmd15deactivate_venv0CsgEqbR8KZSOZ_2vx
FNDA:0,_RNCNvNtNtCs8vv7mWF5ug8_2vx3cli8venv_cmd17show_current_venv0CsgEqbR8KZSOZ_2vx
FNDA:0,_RNCNvNtNtCs8vv7mWF5ug8_2vx3cli8venv_cmd19handle_venv_command0CsgEqbR8KZSOZ_2vx
FNDA:0,_RNCNvXs0_NtNtCs8vv7mWF5ug8_2vx3cli8venv_cmdNtB7_11VenvCommandNtNtCs9dv23kYwsEz_12clap_builder6derive14FromArgMatches20from_arg_matches_mut0Bb_
FNDA:0,_RNCNvXs0_NtNtCs8vv7mWF5ug8_2vx3cli8venv_cmdNtB7_11VenvCommandNtNtCs9dv23kYwsEz_12clap_builder6derive14FromArgMatches20from_arg_matches_muts0_0Bb_
FNDA:0,_RNCNvXs0_NtNtCs8vv7mWF5ug8_2vx3cli8venv_cmdNtB7_11VenvCommandNtNtCs9dv23kYwsEz_12clap_builder6derive14FromArgMatches20from_arg_matches_muts1_0Bb_
FNDA:0,_RNCNvXs0_NtNtCs8vv7mWF5ug8_2vx3cli8venv_cmdNtB7_11VenvCommandNtNtCs9dv23kYwsEz_12clap_builder6derive14FromArgMatches20from_arg_matches_muts2_0Bb_
FNDA:0,_RNCNvXs0_NtNtCs8vv7mWF5ug8_2vx3cli8venv_cmdNtB7_11VenvCommandNtNtCs9dv23kYwsEz_12clap_builder6derive14FromArgMatches20from_arg_matches_muts_0Bb_
FNDA:0,_RNCNvXs0_NtNtCs8vv7mWF5ug8_2vx3cli8venv_cmdNtB7_11VenvCommandNtNtCs9dv23kYwsEz_12clap_builder6derive14FromArgMatches27update_from_arg_matches_mut0Bb_
FNDA:0,_RNCNvXs0_NtNtCs8vv7mWF5ug8_2vx3cli8venv_cmdNtB7_11VenvCommandNtNtCs9dv23kYwsEz_12clap_builder6derive14FromArgMatches27update_from_arg_matches_muts0_0Bb_
FNDA:0,_RNCNvXs0_NtNtCs8vv7mWF5ug8_2vx3cli8venv_cmdNtB7_11VenvCommandNtNtCs9dv23kYwsEz_12clap_builder6derive14FromArgMatches27update_from_arg_matches_muts1_0Bb_
FNDA:0,_RNCNvXs0_NtNtCs8vv7mWF5ug8_2vx3cli8venv_cmdNtB7_11VenvCommandNtNtCs9dv23kYwsEz_12clap_builder6derive14FromArgMatches27update_from_arg_matches_muts2_0Bb_
FNDA:0,_RNCNvXs0_NtNtCs8vv7mWF5ug8_2vx3cli8venv_cmdNtB7_11VenvCommandNtNtCs9dv23kYwsEz_12clap_builder6derive14FromArgMatches27update_from_arg_matches_muts_0Bb_
FNDA:0,_RNvNtNtCs8vv7mWF5ug8_2vx3cli8venv_cmd10list_venvs
FNDA:0,_RNvNtNtCs8vv7mWF5ug8_2vx3cli8venv_cmd11create_venv
FNDA:0,_RNvNtNtCs8vv7mWF5ug8_2vx3cli8venv_cmd11remove_venv
FNDA:0,_RNvNtNtCs8vv7mWF5ug8_2vx3cli8venv_cmd13activate_venv
FNDA:0,_RNvNtNtCs8vv7mWF5ug8_2vx3cli8venv_cmd15deactivate_venv
FNDA:0,_RNvNtNtCs8vv7mWF5ug8_2vx3cli8venv_cmd17show_current_venv
FNDA:0,_RNvNtNtCs8vv7mWF5ug8_2vx3cli8venv_cmd19handle_venv_command
FNF:19
FNH:0
DA:19,0
DA:22,0
DA:29,0
DA:36,0
DA:39,0
DA:45,0
DA:46,0
DA:48,0
DA:49,0
DA:50,0
DA:51,0
DA:52,0
DA:53,0
DA:54,0
DA:56,0
DA:58,0
DA:59,0
DA:60,0
DA:61,0
DA:62,0
DA:63,0
DA:64,0
DA:65,0
DA:66,0
DA:67,0
DA:68,0
DA:71,0
DA:72,0
DA:73,0
DA:74,0
DA:75,0
DA:76,0
DA:77,0
DA:80,0
DA:82,0
DA:83,0
DA:84,0
DA:85,0
DA:86,0
DA:87,0
DA:88,0
DA:89,0
DA:91,0
DA:92,0
DA:94,0
DA:95,0
DA:96,0
DA:97,0
DA:98,0
DA:99,0
DA:100,0
DA:101,0
DA:103,0
DA:104,0
DA:105,0
DA:106,0
DA:107,0
DA:108,0
DA:111,0
DA:112,0
DA:113,0
DA:115,0
DA:116,0
DA:118,0
DA:119,0
DA:120,0
DA:121,0
DA:122,0
DA:123,0
DA:124,0
DA:125,0
DA:126,0
DA:127,0
DA:128,0
DA:130,0
DA:132,0
DA:133,0
DA:134,0
DA:135,0
DA:136,0
DA:137,0
DA:138,0
DA:139,0
DA:140,0
DA:141,0
DA:142,0
DA:143,0
DA:145,0
DA:146,0
DA:147,0
DA:148,0
DA:149,0
DA:150,0
DA:151,0
DA:152,0
DA:153,0
DA:154,0
DA:155,0
DA:156,0
DA:157,0
DA:158,0
DA:159,0
DA:160,0
DA:161,0
DA:163,0
DA:164,0
DA:167,0
DA:168,0
DA:169,0
DA:170,0
DA:171,0
DA:172,0
DA:173,0
DA:175,0
DA:176,0
DA:177,0
DA:178,0
DA:179,0
DA:182,0
DA:183,0
DA:184,0
DA:185,0
DA:186,0
DA:187,0
DA:189,0
DA:190,0
DA:191,0
DA:192,0
DA:193,0
DA:195,0
DA:196,0
DA:197,0
DA:198,0
DA:199,0
DA:200,0
DA:201,0
DA:203,0
DA:204,0
BRF:0
BRH:0
LF:145
LH:0
end_of_record
SF:C:\github\mcpx\src\cli\version.rs
FN:6,_RNCNvNtNtCse561JCZuupE_2vx3cli7version6handle0B7_
FN:6,_RNvNtNtCse561JCZuupE_2vx3cli7version6handle
FN:6,_RNCNvNtNtCs8vv7mWF5ug8_2vx3cli7version6handle0CsgEqbR8KZSOZ_2vx
FN:6,_RNvNtNtCs8vv7mWF5ug8_2vx3cli7version6handle
FNDA:0,_RNCNvNtNtCse561JCZuupE_2vx3cli7version6handle0B7_
FNDA:0,_RNvNtNtCse561JCZuupE_2vx3cli7version6handle
FNDA:0,_RNCNvNtNtCs8vv7mWF5ug8_2vx3cli7version6handle0CsgEqbR8KZSOZ_2vx
FNDA:0,_RNvNtNtCs8vv7mWF5ug8_2vx3cli7version6handle
FNF:2
FNH:0
DA:6,0
DA:7,0
DA:8,0
DA:9,0
DA:10,0
DA:11,0
BRF:0
BRH:0
LF:7
LH:0
end_of_record
SF:C:\github\mcpx\src\cli\where_cmd.rs
FN:136,_RNCNCNvNtNtCse561JCZuupE_2vx3cli9where_cmd22show_all_installations00B9_
FN:137,_RNCNCNvNtNtCse561JCZuupE_2vx3cli9where_cmd22show_all_installations0s_0B9_
FN:98,_RNCNvNtNtCse561JCZuupE_2vx3cli9where_cmd22show_all_installations0B7_
FN:16,_RNCNvNtNtCse561JCZuupE_2vx3cli9where_cmd24show_active_installation0B7_
FN:8,_RNCNvNtNtCse561JCZuupE_2vx3cli9where_cmd6handle0B7_
FN:268,_RNvNtNtCse561JCZuupE_2vx3cli9where_cmd13is_vx_managed
FN:278,_RNvNtNtCse561JCZuupE_2vx3cli9where_cmd15find_executable
FN:193,_RNvNtNtCse561JCZuupE_2vx3cli9where_cmd21get_common_tool_paths
FN:161,_RNvNtNtCse561JCZuupE_2vx3cli9where_cmd22check_common_locations
FN:98,_RNvNtNtCse561JCZuupE_2vx3cli9where_cmd22show_all_installations
FN:16,_RNvNtNtCse561JCZuupE_2vx3cli9where_cmd24show_active_installation
FN:8,_RNvNtNtCse561JCZuupE_2vx3cli9where_cmd6handle
FN:136,_RNCNCNvNtNtCs8vv7mWF5ug8_2vx3cli9where_cmd22show_all_installations00CsgEqbR8KZSOZ_2vx
FN:137,_RNCNCNvNtNtCs8vv7mWF5ug8_2vx3cli9where_cmd22show_all_installations0s_0CsgEqbR8KZSOZ_2vx
FN:98,_RNCNvNtNtCs8vv7mWF5ug8_2vx3cli9where_cmd22show_all_installations0CsgEqbR8KZSOZ_2vx
FN:16,_RNCNvNtNtCs8vv7mWF5ug8_2vx3cli9where_cmd24show_active_installation0CsgEqbR8KZSOZ_2vx
FN:8,_RNCNvNtNtCs8vv7mWF5ug8_2vx3cli9where_cmd6handle0CsgEqbR8KZSOZ_2vx
FN:268,_RNvNtNtCs8vv7mWF5ug8_2vx3cli9where_cmd13is_vx_managed
FN:278,_RNvNtNtCs8vv7mWF5ug8_2vx3cli9where_cmd15find_executable
FN:193,_RNvNtNtCs8vv7mWF5ug8_2vx3cli9where_cmd21get_common_tool_paths
FN:161,_RNvNtNtCs8vv7mWF5ug8_2vx3cli9where_cmd22check_common_locations
FN:98,_RNvNtNtCs8vv7mWF5ug8_2vx3cli9where_cmd22show_all_installations
FN:16,_RNvNtNtCs8vv7mWF5ug8_2vx3cli9where_cmd24show_active_installation
FN:8,_RNvNtNtCs8vv7mWF5ug8_2vx3cli9where_cmd6handle
FNDA:0,_RNCNCNvNtNtCse561JCZuupE_2vx3cli9where_cmd22show_all_installations00B9_
FNDA:0,_RNCNCNvNtNtCse561JCZuupE_2vx3cli9where_cmd22show_all_installations0s_0B9_
FNDA:0,_RNCNvNtNtCse561JCZuupE_2vx3cli9where_cmd22show_all_installations0B7_
FNDA:0,_RNCNvNtNtCse561JCZuupE_2vx3cli9where_cmd24show_active_installation0B7_
FNDA:0,_RNCNvNtNtCse561JCZuupE_2vx3cli9where_cmd6handle0B7_
FNDA:0,_RNvNtNtCse561JCZuupE_2vx3cli9where_cmd13is_vx_managed
FNDA:0,_RNvNtNtCse561JCZuupE_2vx3cli9where_cmd15find_executable
FNDA:0,_RNvNtNtCse561JCZuupE_2vx3cli9where_cmd21get_common_tool_paths
FNDA:0,_RNvNtNtCse561JCZuupE_2vx3cli9where_cmd22check_common_locations
FNDA:0,_RNvNtNtCse561JCZuupE_2vx3cli9where_cmd22show_all_installations
FNDA:0,_RNvNtNtCse561JCZuupE_2vx3cli9where_cmd24show_active_installation
FNDA:0,_RNvNtNtCse561JCZuupE_2vx3cli9where_cmd6handle
FNDA:0,_RNCNCNvNtNtCs8vv7mWF5ug8_2vx3cli9where_cmd22show_all_installations00CsgEqbR8KZSOZ_2vx
FNDA:0,_RNCNCNvNtNtCs8vv7mWF5ug8_2vx3cli9where_cmd22show_all_installations0s_0CsgEqbR8KZSOZ_2vx
FNDA:0,_RNCNvNtNtCs8vv7mWF5ug8_2vx3cli9where_cmd22show_all_installations0CsgEqbR8KZSOZ_2vx
FNDA:0,_RNCNvNtNtCs8vv7mWF5ug8_2vx3cli9where_cmd24show_active_installation0CsgEqbR8KZSOZ_2vx
FNDA:0,_RNCNvNtNtCs8vv7mWF5ug8_2vx3cli9where_cmd6handle0CsgEqbR8KZSOZ_2vx
FNDA:0,_RNvNtNtCs8vv7mWF5ug8_2vx3cli9where_cmd13is_vx_managed
FNDA:0,_RNvNtNtCs8vv7mWF5ug8_2vx3cli9where_cmd15find_executable
FNDA:0,_RNvNtNtCs8vv7mWF5ug8_2vx3cli9where_cmd21get_common_tool_paths
FNDA:0,_RNvNtNtCs8vv7mWF5ug8_2vx3cli9where_cmd22check_common_locations
FNDA:0,_RNvNtNtCs8vv7mWF5ug8_2vx3cli9where_cmd22show_all_installations
FNDA:0,_RNvNtNtCs8vv7mWF5ug8_2vx3cli9where_cmd24show_active_installation
FNDA:0,_RNvNtNtCs8vv7mWF5ug8_2vx3cli9where_cmd6handle
FNF:12
FNH:0
DA:8,0
DA:9,0
DA:10,0
DA:12,0
DA:14,0
DA:16,0
DA:17,0
DA:18,0
DA:19,0
DA:22,0
DA:23,0
DA:24,0
DA:25,0
DA:27,0
DA:28,0
DA:29,0
DA:30,0
DA:31,0
DA:34,0
DA:35,0
DA:36,0
DA:38,0
DA:39,0
DA:40,0
DA:41,0
DA:42,0
DA:43,0
DA:44,0
DA:45,0
DA:48,0
DA:49,0
DA:50,0
DA:51,0
DA:52,0
DA:53,0
DA:54,0
DA:56,0
DA:57,0
DA:58,0
DA:59,0
DA:61,0
DA:64,0
DA:65,0
DA:66,0
DA:67,0
DA:68,0
DA:69,0
DA:70,0
DA:71,0
DA:74,0
DA:75,0
DA:76,0
DA:77,0
DA:78,0
DA:79,0
DA:80,0
DA:81,0
DA:82,0
DA:84,0
DA:85,0
DA:86,0
DA:87,0
DA:89,0
DA:90,0
DA:91,0
DA:92,0
DA:93,0
DA:95,0
DA:96,0
DA:98,0
DA:99,0
DA:100,0
DA:101,0
DA:104,0
DA:105,0
DA:106,0
DA:107,0
DA:108,0
DA:109,0
DA:110,0
DA:111,0
DA:112,0
DA:113,0
DA:114,0
DA:115,0
DA:118,0
DA:119,0
DA:120,0
DA:121,0
DA:122,0
DA:123,0
DA:125,0
DA:126,0
DA:127,0
DA:128,0
DA:129,0
DA:132,0
DA:133,0
DA:134,0
DA:135,0
DA:136,0
DA:137,0
DA:138,0
DA:139,0
DA:141,0
DA:142,0
DA:143,0
DA:145,0
DA:147,0
DA:148,0
DA:151,0
DA:152,0
DA:153,0
DA:154,0
DA:155,0
DA:156,0
DA:158,0
DA:159,0
DA:161,0
DA:162,0
DA:163,0
DA:165,0
DA:166,0
DA:167,0
DA:168,0
DA:171,0
DA:172,0
DA:173,0
DA:175,0
DA:176,0
DA:179,0
DA:180,0
DA:181,0
DA:182,0
DA:183,0
DA:184,0
DA:185,0
DA:186,0
DA:187,0
DA:189,0
DA:190,0
DA:191,0
DA:193,0
DA:194,0
DA:195,0
DA:196,0
DA:197,0
DA:198,0
DA:199,0
DA:200,0
DA:201,0
DA:202,0
DA:203,0
DA:204,0
DA:205,0
DA:206,0
DA:207,0
DA:208,0
DA:209,0
DA:210,0
DA:211,0
DA:212,0
DA:213,0
DA:214,0
DA:215,0
DA:216,0
DA:217,0
DA:218,0
DA:219,0
DA:220,0
DA:223,0
DA:224,0
DA:225,0
DA:226,0
DA:227,0
DA:228,0
DA:230,0
DA:231,0
DA:232,0
DA:233,0
DA:234,0
DA:235,0
DA:236,0
DA:237,0
DA:238,0
DA:239,0
DA:242,0
DA:243,0
DA:244,0
DA:245,0
DA:246,0
DA:247,0
DA:248,0
DA:249,0
DA:251,0
DA:252,0
DA:253,0
DA:254,0
DA:255,0
DA:257,0
DA:258,0
DA:259,0
DA:260,0
DA:262,0
DA:265,0
DA:266,0
DA:268,0
DA:270,0
DA:271,0
DA:272,0
DA:274,0
DA:276,0
DA:278,0
DA:279,0
DA:280,0
DA:282,0
DA:286,0
DA:287,0
DA:288,0
DA:289,0
DA:290,0
DA:293,0
DA:294,0
DA:295,0
DA:296,0
DA:297,0
DA:298,0
BRF:0
BRH:0
LF:232
LH:0
end_of_record
SF:C:\github\mcpx\src\config_figment.rs
FN:581,_RNCNvMs0_NtCs8vv7mWF5ug8_2vx14config_figmentNtB7_12ConfigStatus10is_healthy0B9_
FN:559,_RNCNvMs0_NtCs8vv7mWF5ug8_2vx14config_figmentNtB7_12ConfigStatus7summary0B9_
FN:564,_RNCNvMs0_NtCs8vv7mWF5ug8_2vx14config_figmentNtB7_12ConfigStatus7summarys0_0B9_
FN:563,_RNCNvMs0_NtCs8vv7mWF5ug8_2vx14config_figmentNtB7_12ConfigStatus7summarys_0B9_
FN:375,_RNCNvMs_NtCs8vv7mWF5ug8_2vx14config_figmentNtB6_20FigmentConfigManager10get_status0B8_
FN:263,_RNCNvMs_NtCs8vv7mWF5ug8_2vx14config_figmentNtB6_20FigmentConfigManager16get_download_url0B8_
FN:264,_RNCNvMs_NtCs8vv7mWF5ug8_2vx14config_figmentNtB6_20FigmentConfigManager16get_download_urls_0B8_
FN:580,_RNvMs0_NtCs8vv7mWF5ug8_2vx14config_figmentNtB5_12ConfigStatus10is_healthy
FN:558,_RNvMs0_NtCs8vv7mWF5ug8_2vx14config_figmentNtB5_12ConfigStatus7summary
FN:347,_RNvMs_NtCs8vv7mWF5ug8_2vx14config_figmentNtB4_20FigmentConfigManager10get_status
FN:485,_RNvMs_NtCs8vv7mWF5ug8_2vx14config_figmentNtB4_20FigmentConfigManager12parse_go_mod
FN:406,_RNvMs_NtCs8vv7mWF5ug8_2vx14config_figmentNtB4_20FigmentConfigManager12project_info
FN:217,_RNvMs_NtCs8vv7mWF5ug8_2vx14config_figmentNtB4_20FigmentConfigManager13build_figment
FN:332,_RNvMs_NtCs8vv7mWF5ug8_2vx14config_figmentNtB4_20FigmentConfigManager13supports_tool
FN:304,_RNvMs_NtCs8vv7mWF5ug8_2vx14config_figmentNtB4_20FigmentConfigManager15get_tool_config
FN:250,_RNvMs_NtCs8vv7mWF5ug8_2vx14config_figmentNtB4_20FigmentConfigManager16get_download_url
FN:442,_RNvMs_NtCs8vv7mWF5ug8_2vx14config_figmentNtB4_20FigmentConfigManager16parse_cargo_toml
FN:460,_RNvMs_NtCs8vv7mWF5ug8_2vx14config_figmentNtB4_20FigmentConfigManager18parse_package_json
FN:137,_RNvMs_NtCs8vv7mWF5ug8_2vx14config_figmentNtB4_20FigmentConfigManager19detect_project_info
FN:276,_RNvMs_NtCs8vv7mWF5ug8_2vx14config_figmentNtB4_20FigmentConfigManager19expand_url_template
FN:309,_RNvMs_NtCs8vv7mWF5ug8_2vx14config_figmentNtB4_20FigmentConfigManager19get_available_tools
FN:411,_RNvMs_NtCs8vv7mWF5ug8_2vx14config_figmentNtB4_20FigmentConfigManager20parse_pyproject_toml
FN:505,_RNvMs_NtCs8vv7mWF5ug8_2vx14config_figmentNtB4_20FigmentConfigManager25parse_version_requirement
FN:521,_RNvMs_NtCs8vv7mWF5ug8_2vx14config_figmentNtB4_20FigmentConfigManager31create_project_config_from_info
FN:112,_RNvMs_NtCs8vv7mWF5ug8_2vx14config_figmentNtB4_20FigmentConfigManager3new
FN:401,_RNvMs_NtCs8vv7mWF5ug8_2vx14config_figmentNtB4_20FigmentConfigManager6config
FN:388,_RNvMs_NtCs8vv7mWF5ug8_2vx14config_figmentNtB4_20FigmentConfigManager6reload
FN:396,_RNvMs_NtCs8vv7mWF5ug8_2vx14config_figmentNtB4_20FigmentConfigManager7figment
FN:125,_RNvMs_NtCs8vv7mWF5ug8_2vx14config_figmentNtB4_20FigmentConfigManager7minimal
FN:43,_RNvXNtCs8vv7mWF5ug8_2vx14config_figmentNtB2_13DefaultConfigNtNtCsaDtq73Zt8sT_4core7default7Default7default
FN:263,_RNCNvMs_NtCse561JCZuupE_2vx14config_figmentNtB6_20FigmentConfigManager16get_download_url0B8_
FN:264,_RNCNvMs_NtCse561JCZuupE_2vx14config_figmentNtB6_20FigmentConfigManager16get_download_urls_0B8_
FN:406,_RNvMs_NtCse561JCZuupE_2vx14config_figmentNtB4_20FigmentConfigManager12project_info
FN:250,_RNvMs_NtCse561JCZuupE_2vx14config_figmentNtB4_20FigmentConfigManager16get_download_url
FN:401,_RNvMs_NtCse561JCZuupE_2vx14config_figmentNtB4_20FigmentConfigManager6config
FN:388,_RNvMs_NtCse561JCZuupE_2vx14config_figmentNtB4_20FigmentConfigManager6reload
FN:396,_RNvMs_NtCse561JCZuupE_2vx14config_figmentNtB4_20FigmentConfigManager7figment
FN:608,_RNvNtNtCse561JCZuupE_2vx14config_figment5testss_18test_config_status
FN:590,_RNvNtNtCse561JCZuupE_2vx14config_figment5testss_19test_minimal_config
FN:597,_RNvNtNtCse561JCZuupE_2vx14config_figment5testss_27test_url_template_expansion
FN:581,_RNCNvMs0_NtCse561JCZuupE_2vx14config_figmentNtB7_12ConfigStatus10is_healthy0B9_
FN:559,_RNCNvMs0_NtCse561JCZuupE_2vx14config_figmentNtB7_12ConfigStatus7summary0B9_
FN:564,_RNCNvMs0_NtCse561JCZuupE_2vx14config_figmentNtB7_12ConfigStatus7summarys0_0B9_
FN:563,_RNCNvMs0_NtCse561JCZuupE_2vx14config_figmentNtB7_12ConfigStatus7summarys_0B9_
FN:375,_RNCNvMs_NtCse561JCZuupE_2vx14config_figmentNtB6_20FigmentConfigManager10get_status0B8_
FN:580,_RNvMs0_NtCse561JCZuupE_2vx14config_figmentNtB5_12ConfigStatus10is_healthy
FN:558,_RNvMs0_NtCse561JCZuupE_2vx14config_figmentNtB5_12ConfigStatus7summary
FN:347,_RNvMs_NtCse561JCZuupE_2vx14config_figmentNtB4_20FigmentConfigManager10get_status
FN:485,_RNvMs_NtCse561JCZuupE_2vx14config_figmentNtB4_20FigmentConfigManager12parse_go_mod
FN:217,_RNvMs_NtCse561JCZuupE_2vx14config_figmentNtB4_20FigmentConfigManager13build_figment
FN:332,_RNvMs_NtCse561JCZuupE_2vx14config_figmentNtB4_20FigmentConfigManager13supports_tool
FN:304,_RNvMs_NtCse561JCZuupE_2vx14config_figmentNtB4_20FigmentConfigManager15get_tool_config
FN:442,_RNvMs_NtCse561JCZuupE_2vx14config_figmentNtB4_20FigmentConfigManager16parse_cargo_toml
FN:460,_RNvMs_NtCse561JCZuupE_2vx14config_figmentNtB4_20FigmentConfigManager18parse_package_json
FN:137,_RNvMs_NtCse561JCZuupE_2vx14config_figmentNtB4_20FigmentConfigManager19detect_project_info
FN:276,_RNvMs_NtCse561JCZuupE_2vx14config_figmentNtB4_20FigmentConfigManager19expand_url_template
FN:309,_RNvMs_NtCse561JCZuupE_2vx14config_figmentNtB4_20FigmentConfigManager19get_available_tools
FN:411,_RNvMs_NtCse561JCZuupE_2vx14config_figmentNtB4_20FigmentConfigManager20parse_pyproject_toml
FN:505,_RNvMs_NtCse561JCZuupE_2vx14config_figmentNtB4_20FigmentConfigManager25parse_version_requirement
FN:521,_RNvMs_NtCse561JCZuupE_2vx14config_figmentNtB4_20FigmentConfigManager31create_project_config_from_info
FN:112,_RNvMs_NtCse561JCZuupE_2vx14config_figmentNtB4_20FigmentConfigManager3new
FN:125,_RNvMs_NtCse561JCZuupE_2vx14config_figmentNtB4_20FigmentConfigManager7minimal
FN:43,_RNvXNtCse561JCZuupE_2vx14config_figmentNtB2_13DefaultConfigNtNtCsaDtq73Zt8sT_4core7default7Default7default
FNDA:0,_RNCNvMs0_NtCs8vv7mWF5ug8_2vx14config_figmentNtB7_12ConfigStatus10is_healthy0B9_
FNDA:0,_RNCNvMs0_NtCs8vv7mWF5ug8_2vx14config_figmentNtB7_12ConfigStatus7summary0B9_
FNDA:0,_RNCNvMs0_NtCs8vv7mWF5ug8_2vx14config_figmentNtB7_12ConfigStatus7summarys0_0B9_
FNDA:0,_RNCNvMs0_NtCs8vv7mWF5ug8_2vx14config_figmentNtB7_12ConfigStatus7summarys_0B9_
FNDA:376,_RNCNvMs_NtCs8vv7mWF5ug8_2vx14config_figmentNtB6_20FigmentConfigManager10get_status0B8_
FNDA:13,_RNCNvMs_NtCs8vv7mWF5ug8_2vx14config_figmentNtB6_20FigmentConfigManager16get_download_url0B8_
FNDA:2,_RNCNvMs_NtCs8vv7mWF5ug8_2vx14config_figmentNtB6_20FigmentConfigManager16get_download_urls_0B8_
FNDA:0,_RNvMs0_NtCs8vv7mWF5ug8_2vx14config_figmentNtB5_12ConfigStatus10is_healthy
FNDA:0,_RNvMs0_NtCs8vv7mWF5ug8_2vx14config_figmentNtB5_12ConfigStatus7summary
FNDA:4,_RNvMs_NtCs8vv7mWF5ug8_2vx14config_figmentNtB4_20FigmentConfigManager10get_status
FNDA:0,_RNvMs_NtCs8vv7mWF5ug8_2vx14config_figmentNtB4_20FigmentConfigManager12parse_go_mod
FNDA:0,_RNvMs_NtCs8vv7mWF5ug8_2vx14config_figmentNtB4_20FigmentConfigManager12project_info
FNDA:8,_RNvMs_NtCs8vv7mWF5ug8_2vx14config_figmentNtB4_20FigmentConfigManager13build_figment
FNDA:6,_RNvMs_NtCs8vv7mWF5ug8_2vx14config_figmentNtB4_20FigmentConfigManager13supports_tool
FNDA:7,_RNvMs_NtCs8vv7mWF5ug8_2vx14config_figmentNtB4_20FigmentConfigManager15get_tool_config
FNDA:15,_RNvMs_NtCs8vv7mWF5ug8_2vx14config_figmentNtB4_20FigmentConfigManager16get_download_url
FNDA:4,_RNvMs_NtCs8vv7mWF5ug8_2vx14config_figmentNtB4_20FigmentConfigManager16parse_cargo_toml
FNDA:1,_RNvMs_NtCs8vv7mWF5ug8_2vx14config_figmentNtB4_20FigmentConfigManager18parse_package_json
FNDA:8,_RNvMs_NtCs8vv7mWF5ug8_2vx14config_figmentNtB4_20FigmentConfigManager19detect_project_info
FNDA:0,_RNvMs_NtCs8vv7mWF5ug8_2vx14config_figmentNtB4_20FigmentConfigManager19expand_url_template
FNDA:7,_RNvMs_NtCs8vv7mWF5ug8_2vx14config_figmentNtB4_20FigmentConfigManager19get_available_tools
FNDA:2,_RNvMs_NtCs8vv7mWF5ug8_2vx14config_figmentNtB4_20FigmentConfigManager20parse_pyproject_toml
FNDA:4,_RNvMs_NtCs8vv7mWF5ug8_2vx14config_figmentNtB4_20FigmentConfigManager25parse_version_requirement
FNDA:7,_RNvMs_NtCs8vv7mWF5ug8_2vx14config_figmentNtB4_20FigmentConfigManager31create_project_config_from_info
FNDA:6,_RNvMs_NtCs8vv7mWF5ug8_2vx14config_figmentNtB4_20FigmentConfigManager3new
FNDA:0,_RNvMs_NtCs8vv7mWF5ug8_2vx14config_figmentNtB4_20FigmentConfigManager6config
FNDA:2,_RNvMs_NtCs8vv7mWF5ug8_2vx14config_figmentNtB4_20FigmentConfigManager6reload
FNDA:0,_RNvMs_NtCs8vv7mWF5ug8_2vx14config_figmentNtB4_20FigmentConfigManager7figment
FNDA:18,_RNvMs_NtCs8vv7mWF5ug8_2vx14config_figmentNtB4_20FigmentConfigManager7minimal
FNDA:33,_RNvXNtCs8vv7mWF5ug8_2vx14config_figmentNtB2_13DefaultConfigNtNtCsaDtq73Zt8sT_4core7default7Default7default
FNDA:0,_RNCNvMs_NtCse561JCZuupE_2vx14config_figmentNtB6_20FigmentConfigManager16get_download_url0B8_
FNDA:0,_RNCNvMs_NtCse561JCZuupE_2vx14config_figmentNtB6_20FigmentConfigManager16get_download_urls_0B8_
FNDA:0,_RNvMs_NtCse561JCZuupE_2vx14config_figmentNtB4_20FigmentConfigManager12project_info
FNDA:0,_RNvMs_NtCse561JCZuupE_2vx14config_figmentNtB4_20FigmentConfigManager16get_download_url
FNDA:0,_RNvMs_NtCse561JCZuupE_2vx14config_figmentNtB4_20FigmentConfigManager6config
FNDA:0,_RNvMs_NtCse561JCZuupE_2vx14config_figmentNtB4_20FigmentConfigManager6reload
FNDA:0,_RNvMs_NtCse561JCZuupE_2vx14config_figmentNtB4_20FigmentConfigManager7figment
FNDA:1,_RNvNtNtCse561JCZuupE_2vx14config_figment5testss_18test_config_status
FNDA:1,_RNvNtNtCse561JCZuupE_2vx14config_figment5testss_19test_minimal_config
FNDA:1,_RNvNtNtCse561JCZuupE_2vx14config_figment5testss_27test_url_template_expansion
FNDA:1,_RNCNvMs0_NtCse561JCZuupE_2vx14config_figmentNtB7_12ConfigStatus10is_healthy0B9_
FNDA:4,_RNCNvMs0_NtCse561JCZuupE_2vx14config_figmentNtB7_12ConfigStatus7summary0B9_
FNDA:1,_RNCNvMs0_NtCse561JCZuupE_2vx14config_figmentNtB7_12ConfigStatus7summarys0_0B9_
FNDA:0,_RNCNvMs0_NtCse561JCZuupE_2vx14config_figmentNtB7_12ConfigStatus7summarys_0B9_
FNDA:94,_RNCNvMs_NtCse561JCZuupE_2vx14config_figmentNtB6_20FigmentConfigManager10get_status0B8_
FNDA:1,_RNvMs0_NtCse561JCZuupE_2vx14config_figmentNtB5_12ConfigStatus10is_healthy
FNDA:1,_RNvMs0_NtCse561JCZuupE_2vx14config_figmentNtB5_12ConfigStatus7summary
FNDA:1,_RNvMs_NtCse561JCZuupE_2vx14config_figmentNtB4_20FigmentConfigManager10get_status
FNDA:0,_RNvMs_NtCse561JCZuupE_2vx14config_figmentNtB4_20FigmentConfigManager12parse_go_mod
FNDA:3,_RNvMs_NtCse561JCZuupE_2vx14config_figmentNtB4_20FigmentConfigManager13build_figment
FNDA:1,_RNvMs_NtCse561JCZuupE_2vx14config_figmentNtB4_20FigmentConfigManager13supports_tool
FNDA:1,_RNvMs_NtCse561JCZuupE_2vx14config_figmentNtB4_20FigmentConfigManager15get_tool_config
FNDA:3,_RNvMs_NtCse561JCZuupE_2vx14config_figmentNtB4_20FigmentConfigManager16parse_cargo_toml
FNDA:0,_RNvMs_NtCse561JCZuupE_2vx14config_figmentNtB4_20FigmentConfigManager18parse_package_json
FNDA:3,_RNvMs_NtCse561JCZuupE_2vx14config_figmentNtB4_20FigmentConfigManager19detect_project_info
FNDA:1,_RNvMs_NtCse561JCZuupE_2vx14config_figmentNtB4_20FigmentConfigManager19expand_url_template
FNDA:2,_RNvMs_NtCse561JCZuupE_2vx14config_figmentNtB4_20FigmentConfigManager19get_available_tools
FNDA:0,_RNvMs_NtCse561JCZuupE_2vx14config_figmentNtB4_20FigmentConfigManager20parse_pyproject_toml
FNDA:0,_RNvMs_NtCse561JCZuupE_2vx14config_figmentNtB4_20FigmentConfigManager25parse_version_requirement
FNDA:3,_RNvMs_NtCse561JCZuupE_2vx14config_figmentNtB4_20FigmentConfigManager31create_project_config_from_info
FNDA:3,_RNvMs_NtCse561JCZuupE_2vx14config_figmentNtB4_20FigmentConfigManager3new
FNDA:6,_RNvMs_NtCse561JCZuupE_2vx14config_figmentNtB4_20FigmentConfigManager7minimal
FNDA:12,_RNvXNtCse561JCZuupE_2vx14config_figmentNtB2_13DefaultConfigNtNtCsaDtq73Zt8sT_4core7default7Default7default
FNF:33
FNH:28
DA:43,45
DA:44,45
DA:45,45
DA:46,45
DA:47,45
DA:48,45
DA:49,45
DA:50,45
DA:51,45
DA:112,9
DA:113,9
DA:114,9
DA:115,9
DA:117,9
DA:118,9
DA:119,9
DA:120,9
DA:121,9
DA:122,9
DA:125,24
DA:126,24
DA:127,24
DA:129,24
DA:130,24
DA:131,24
DA:132,24
DA:133,24
DA:134,24
DA:137,11
DA:138,11
DA:139,11
DA:140,11
DA:141,11
DA:142,11
DA:143,11
DA:144,11
DA:145,2
DA:146,2
DA:147,2
DA:148,2
DA:149,9
DA:152,11
DA:153,11
DA:154,7
DA:155,7
DA:156,7
DA:157,7
DA:158,4
DA:161,11
DA:162,11
DA:163,1
DA:164,1
DA:165,1
DA:166,1
DA:167,10
DA:170,11
DA:171,11
DA:172,0
DA:173,0
DA:174,0
DA:175,0
DA:176,11
DA:178,11
DA:179,1
DA:180,10
DA:182,10
DA:183,10
DA:185,0
DA:189,10
DA:190,2
DA:191,7
DA:192,1
DA:193,0
DA:196,0
DA:197,0
DA:198,0
DA:199,0
DA:200,0
DA:201,0
DA:203,0
DA:206,0
DA:209,10
DA:210,10
DA:211,10
DA:212,10
DA:213,10
DA:214,11
DA:217,11
DA:218,11
DA:219,11
DA:220,11
DA:221,11
DA:224,11
DA:225,11
DA:226,11
DA:227,11
DA:228,11
DA:229,0
DA:232,11
DA:233,10
DA:234,10
DA:235,1
DA:238,11
DA:239,11
DA:240,4
DA:241,7
DA:244,11
DA:245,11
DA:246,11
DA:247,11
DA:250,15
DA:252,15
DA:253,1
DA:254,0
DA:255,0
DA:256,0
DA:257,1
DA:258,14
DA:261,15
DA:262,15
DA:263,15
DA:264,15
DA:265,2
DA:266,15
DA:268,0
DA:269,0
DA:270,0
DA:271,0
DA:273,15
DA:276,1
DA:277,1
DA:278,1
DA:279,0
DA:280,0
DA:282,0
DA:285,1
DA:286,1
DA:287,0
DA:288,0
DA:290,0
DA:293,1
DA:295,1
DA:296,1
DA:297,1
DA:298,1
DA:299,1
DA:300,1
DA:301,1
DA:304,8
DA:305,8
DA:306,8
DA:309,9
DA:310,9
DA:313,10
DA:314,10
DA:315,10
DA:318,9
DA:319,45
DA:320,36
DA:321,36
DA:322,36
DA:324,0
DA:326,9
DA:327,9
DA:328,9
DA:329,9
DA:332,7
DA:333,7
DA:334,7
DA:335,0
DA:336,7
DA:337,7
DA:338,7
DA:339,7
DA:340,7
DA:341,0
DA:342,0
DA:343,0
DA:344,7
DA:347,5
DA:348,5
DA:349,5
DA:350,5
DA:351,5
DA:352,5
DA:353,5
DA:354,5
DA:355,5
DA:357,5
DA:358,5
DA:359,5
DA:360,5
DA:361,5
DA:362,5
DA:363,5
DA:364,5
DA:366,5
DA:367,5
DA:368,5
DA:369,5
DA:370,5
DA:371,5
DA:372,5
DA:373,5
DA:374,5
DA:375,470
DA:376,5
DA:377,5
DA:378,5
DA:379,5
DA:380,5
DA:381,5
DA:382,5
DA:383,5
DA:384,5
DA:385,5
DA:388,2
DA:389,2
DA:390,2
DA:391,2
DA:392,2
DA:393,2
DA:396,0
DA:397,0
DA:398,0
DA:401,0
DA:402,0
DA:403,0
DA:406,0
DA:407,0
DA:408,0
DA:411,2
DA:412,2
DA:413,2
DA:414,2
DA:417,2
DA:418,2
DA:419,2
DA:420,2
DA:421,2
DA:422,2
DA:423,2
DA:424,0
DA:425,0
DA:428,2
DA:429,2
DA:430,2
DA:431,2
DA:432,2
DA:433,2
DA:434,0
DA:435,0
DA:436,0
DA:438,2
DA:439,2
DA:442,7
DA:443,7
DA:444,7
DA:445,7
DA:448,7
DA:449,7
DA:450,7
DA:451,7
DA:452,7
DA:453,0
DA:454,0
DA:456,7
DA:457,7
DA:460,1
DA:461,1
DA:462,1
DA:463,1
DA:466,1
DA:467,1
DA:468,1
DA:469,1
DA:470,1
DA:471,1
DA:472,0
DA:473,1
DA:474,1
DA:475,1
DA:476,1
DA:477,1
DA:478,0
DA:479,0
DA:481,1
DA:482,1
DA:485,0
DA:486,0
DA:487,0
DA:490,0
DA:491,0
DA:492,0
DA:493,0
DA:494,0
DA:495,0
DA:496,0
DA:497,0
DA:498,0
DA:501,0
DA:502,0
DA:505,4
DA:506,4
DA:507,4
DA:508,4
DA:509,4
DA:510,4
DA:511,4
DA:512,4
DA:513,4
DA:514,4
DA:515,4
DA:516,4
DA:517,4
DA:518,4
DA:521,10
DA:522,10
DA:525,23
DA:526,13
DA:527,13
DA:528,13
DA:529,13
DA:530,13
DA:531,13
DA:532,13
DA:533,13
DA:535,10
DA:536,10
DA:558,1
DA:559,4
DA:560,1
DA:561,1
DA:562,1
DA:563,1
DA:564,1
DA:565,1
DA:566,1
DA:567,1
DA:568,1
DA:569,1
DA:570,1
DA:571,1
DA:572,1
DA:574,0
DA:577,1
DA:580,1
DA:581,1
DA:582,1
DA:590,1
DA:591,1
DA:592,1
DA:593,1
DA:594,1
DA:597,1
DA:598,1
DA:599,1
DA:600,1
DA:601,1
DA:602,1
DA:603,1
DA:604,1
DA:605,1
DA:608,1
DA:609,1
DA:610,1
DA:611,1
DA:612,1
DA:613,1
DA:614,1
DA:615,1
BRF:0
BRH:0
LF:379
LH:311
end_of_record
SF:C:\github\mcpx\src\executor.rs
FN:194,_RNCNvMNtCs8vv7mWF5ug8_2vx8executorNtB4_8Executor11remove_tool0B6_
FN:194,_RNCNvMNtCse561JCZuupE_2vx8executorNtB4_8Executor11remove_tool0B6_
FN:254,_RNCNvMNtCse561JCZuupE_2vx8executorNtB4_8Executor11run_command0B6_
FN:167,_RNCNvMNtCse561JCZuupE_2vx8executorNtB4_8Executor12install_tool0B6_
FN:227,_RNCNvMNtCse561JCZuupE_2vx8executorNtB4_8Executor13check_updates0B6_
FN:278,_RNCNvMNtCse561JCZuupE_2vx8executorNtB4_8Executor17check_tool_status0B6_
FN:28,_RNCNvMNtCse561JCZuupE_2vx8executorNtB4_8Executor19ensure_tool_manager0B6_
FN:63,_RNCNvMNtCse561JCZuupE_2vx8executorNtB4_8Executor7execute0B6_
FN:307,_RNCNvNtCse561JCZuupE_2vx8executor12execute_tool0B5_
FN:157,_RNvMNtCse561JCZuupE_2vx8executorNtB2_8Executor10list_tools
FN:189,_RNvMNtCse561JCZuupE_2vx8executorNtB2_8Executor11remove_tool
FN:254,_RNvMNtCse561JCZuupE_2vx8executorNtB2_8Executor11run_command
FN:163,_RNvMNtCse561JCZuupE_2vx8executorNtB2_8Executor12install_tool
FN:224,_RNvMNtCse561JCZuupE_2vx8executorNtB2_8Executor13check_updates
FN:183,_RNvMNtCse561JCZuupE_2vx8executorNtB2_8Executor14remove_version
FN:177,_RNvMNtCse561JCZuupE_2vx8executorNtB2_8Executor14switch_version
FN:50,_RNvMNtCse561JCZuupE_2vx8executorNtB2_8Executor16ensure_pm_router
FN:240,_RNvMNtCse561JCZuupE_2vx8executorNtB2_8Executor16run_command_sync
FN:278,_RNvMNtCse561JCZuupE_2vx8executorNtB2_8Executor17check_tool_status
FN:26,_RNvMNtCse561JCZuupE_2vx8executorNtB2_8Executor19ensure_tool_manager
FN:235,_RNvMNtCse561JCZuupE_2vx8executorNtB2_8Executor19get_package_manager
FN:261,_RNvMNtCse561JCZuupE_2vx8executorNtB2_8Executor20find_vx_managed_tool
FN:34,_RNvMNtCse561JCZuupE_2vx8executorNtB2_8Executor22ensure_package_manager
FN:218,_RNvMNtCse561JCZuupE_2vx8executorNtB2_8Executor23list_installed_packages
FN:42,_RNvMNtCse561JCZuupE_2vx8executorNtB2_8Executor26ensure_package_manager_mut
FN:17,_RNvMNtCse561JCZuupE_2vx8executorNtB2_8Executor3new
FN:206,_RNvMNtCse561JCZuupE_2vx8executorNtB2_8Executor7cleanup
FN:58,_RNvMNtCse561JCZuupE_2vx8executorNtB2_8Executor7execute
FN:212,_RNvMNtCse561JCZuupE_2vx8executorNtB2_8Executor9get_stats
FN:307,_RNvNtCse561JCZuupE_2vx8executor12execute_tool
FN:167,_RNCNvMNtCs8vv7mWF5ug8_2vx8executorNtB4_8Executor12install_tool0CsgEqbR8KZSOZ_2vx
FN:254,_RNCNvMNtCs8vv7mWF5ug8_2vx8executorNtB4_8Executor11run_command0CsgEqbR8KZSOZ_2vx
FN:63,_RNCNvMNtCs8vv7mWF5ug8_2vx8executorNtB4_8Executor7execute0CsgEqbR8KZSOZ_2vx
FN:307,_RNCNvNtCs8vv7mWF5ug8_2vx8executor12execute_tool0CsgEqbR8KZSOZ_2vx
FN:28,_RNCNvMNtCs8vv7mWF5ug8_2vx8executorNtB4_8Executor19ensure_tool_manager0B6_
FN:157,_RNvMNtCs8vv7mWF5ug8_2vx8executorNtB2_8Executor10list_tools
FN:189,_RNvMNtCs8vv7mWF5ug8_2vx8executorNtB2_8Executor11remove_tool
FN:254,_RNvMNtCs8vv7mWF5ug8_2vx8executorNtB2_8Executor11run_command
FN:163,_RNvMNtCs8vv7mWF5ug8_2vx8executorNtB2_8Executor12install_tool
FN:224,_RNvMNtCs8vv7mWF5ug8_2vx8executorNtB2_8Executor13check_updates
FN:183,_RNvMNtCs8vv7mWF5ug8_2vx8executorNtB2_8Executor14remove_version
FN:177,_RNvMNtCs8vv7mWF5ug8_2vx8executorNtB2_8Executor14switch_version
FN:50,_RNvMNtCs8vv7mWF5ug8_2vx8executorNtB2_8Executor16ensure_pm_router
FN:240,_RNvMNtCs8vv7mWF5ug8_2vx8executorNtB2_8Executor16run_command_sync
FN:278,_RNvMNtCs8vv7mWF5ug8_2vx8executorNtB2_8Executor17check_tool_status
FN:26,_RNvMNtCs8vv7mWF5ug8_2vx8executorNtB2_8Executor19ensure_tool_manager
FN:235,_RNvMNtCs8vv7mWF5ug8_2vx8executorNtB2_8Executor19get_package_manager
FN:34,_RNvMNtCs8vv7mWF5ug8_2vx8executorNtB2_8Executor22ensure_package_manager
FN:218,_RNvMNtCs8vv7mWF5ug8_2vx8executorNtB2_8Executor23list_installed_packages
FN:42,_RNvMNtCs8vv7mWF5ug8_2vx8executorNtB2_8Executor26ensure_package_manager_mut
FN:17,_RNvMNtCs8vv7mWF5ug8_2vx8executorNtB2_8Executor3new
FN:206,_RNvMNtCs8vv7mWF5ug8_2vx8executorNtB2_8Executor7cleanup
FN:58,_RNvMNtCs8vv7mWF5ug8_2vx8executorNtB2_8Executor7execute
FN:212,_RNvMNtCs8vv7mWF5ug8_2vx8executorNtB2_8Executor9get_stats
FN:307,_RNvNtCs8vv7mWF5ug8_2vx8executor12execute_tool
FNDA:0,_RNCNvMNtCs8vv7mWF5ug8_2vx8executorNtB4_8Executor11remove_tool0B6_
FNDA:0,_RNCNvMNtCse561JCZuupE_2vx8executorNtB4_8Executor11remove_tool0B6_
FNDA:0,_RNCNvMNtCse561JCZuupE_2vx8executorNtB4_8Executor11run_command0B6_
FNDA:0,_RNCNvMNtCse561JCZuupE_2vx8executorNtB4_8Executor12install_tool0B6_
FNDA:0,_RNCNvMNtCse561JCZuupE_2vx8executorNtB4_8Executor13check_updates0B6_
FNDA:0,_RNCNvMNtCse561JCZuupE_2vx8executorNtB4_8Executor17check_tool_status0B6_
FNDA:0,_RNCNvMNtCse561JCZuupE_2vx8executorNtB4_8Executor19ensure_tool_manager0B6_
FNDA:0,_RNCNvMNtCse561JCZuupE_2vx8executorNtB4_8Executor7execute0B6_
FNDA:0,_RNCNvNtCse561JCZuupE_2vx8executor12execute_tool0B5_
FNDA:0,_RNvMNtCse561JCZuupE_2vx8executorNtB2_8Executor10list_tools
FNDA:0,_RNvMNtCse561JCZuupE_2vx8executorNtB2_8Executor11remove_tool
FNDA:0,_RNvMNtCse561JCZuupE_2vx8executorNtB2_8Executor11run_command
FNDA:0,_RNvMNtCse561JCZuupE_2vx8executorNtB2_8Executor12install_tool
FNDA:0,_RNvMNtCse561JCZuupE_2vx8executorNtB2_8Executor13check_updates
FNDA:0,_RNvMNtCse561JCZuupE_2vx8executorNtB2_8Executor14remove_version
FNDA:0,_RNvMNtCse561JCZuupE_2vx8executorNtB2_8Executor14switch_version
FNDA:0,_RNvMNtCse561JCZuupE_2vx8executorNtB2_8Executor16ensure_pm_router
FNDA:0,_RNvMNtCse561JCZuupE_2vx8executorNtB2_8Executor16run_command_sync
FNDA:0,_RNvMNtCse561JCZuupE_2vx8executorNtB2_8Executor17check_tool_status
FNDA:0,_RNvMNtCse561JCZuupE_2vx8executorNtB2_8Executor19ensure_tool_manager
FNDA:0,_RNvMNtCse561JCZuupE_2vx8executorNtB2_8Executor19get_package_manager
FNDA:0,_RNvMNtCse561JCZuupE_2vx8executorNtB2_8Executor20find_vx_managed_tool
FNDA:0,_RNvMNtCse561JCZuupE_2vx8executorNtB2_8Executor22ensure_package_manager
FNDA:0,_RNvMNtCse561JCZuupE_2vx8executorNtB2_8Executor23list_installed_packages
FNDA:0,_RNvMNtCse561JCZuupE_2vx8executorNtB2_8Executor26ensure_package_manager_mut
FNDA:0,_RNvMNtCse561JCZuupE_2vx8executorNtB2_8Executor3new
FNDA:0,_RNvMNtCse561JCZuupE_2vx8executorNtB2_8Executor7cleanup
FNDA:0,_RNvMNtCse561JCZuupE_2vx8executorNtB2_8Executor7execute
FNDA:0,_RNvMNtCse561JCZuupE_2vx8executorNtB2_8Executor9get_stats
FNDA:0,_RNvNtCse561JCZuupE_2vx8executor12execute_tool
FNDA:0,_RNCNvMNtCs8vv7mWF5ug8_2vx8executorNtB4_8Executor12install_tool0CsgEqbR8KZSOZ_2vx
FNDA:0,_RNCNvMNtCs8vv7mWF5ug8_2vx8executorNtB4_8Executor11run_command0CsgEqbR8KZSOZ_2vx
FNDA:0,_RNCNvMNtCs8vv7mWF5ug8_2vx8executorNtB4_8Executor7execute0CsgEqbR8KZSOZ_2vx
FNDA:0,_RNCNvNtCs8vv7mWF5ug8_2vx8executor12execute_tool0CsgEqbR8KZSOZ_2vx
FNDA:0,_RNCNvMNtCs8vv7mWF5ug8_2vx8executorNtB4_8Executor19ensure_tool_manager0B6_
FNDA:0,_RNvMNtCs8vv7mWF5ug8_2vx8executorNtB2_8Executor10list_tools
FNDA:0,_RNvMNtCs8vv7mWF5ug8_2vx8executorNtB2_8Executor11remove_tool
FNDA:0,_RNvMNtCs8vv7mWF5ug8_2vx8executorNtB2_8Executor11run_command
FNDA:0,_RNvMNtCs8vv7mWF5ug8_2vx8executorNtB2_8Executor12install_tool
FNDA:0,_RNvMNtCs8vv7mWF5ug8_2vx8executorNtB2_8Executor13check_updates
FNDA:0,_RNvMNtCs8vv7mWF5ug8_2vx8executorNtB2_8Executor14remove_version
FNDA:0,_RNvMNtCs8vv7mWF5ug8_2vx8executorNtB2_8Executor14switch_version
FNDA:0,_RNvMNtCs8vv7mWF5ug8_2vx8executorNtB2_8Executor16ensure_pm_router
FNDA:0,_RNvMNtCs8vv7mWF5ug8_2vx8executorNtB2_8Executor16run_command_sync
FNDA:0,_RNvMNtCs8vv7mWF5ug8_2vx8executorNtB2_8Executor17check_tool_status
FNDA:0,_RNvMNtCs8vv7mWF5ug8_2vx8executorNtB2_8Executor19ensure_tool_manager
FNDA:0,_RNvMNtCs8vv7mWF5ug8_2vx8executorNtB2_8Executor19get_package_manager
FNDA:0,_RNvMNtCs8vv7mWF5ug8_2vx8executorNtB2_8Executor22ensure_package_manager
FNDA:0,_RNvMNtCs8vv7mWF5ug8_2vx8executorNtB2_8Executor23list_installed_packages
FNDA:0,_RNvMNtCs8vv7mWF5ug8_2vx8executorNtB2_8Executor26ensure_package_manager_mut
FNDA:0,_RNvMNtCs8vv7mWF5ug8_2vx8executorNtB2_8Executor3new
FNDA:0,_RNvMNtCs8vv7mWF5ug8_2vx8executorNtB2_8Executor7cleanup
FNDA:0,_RNvMNtCs8vv7mWF5ug8_2vx8executorNtB2_8Executor7execute
FNDA:0,_RNvMNtCs8vv7mWF5ug8_2vx8executorNtB2_8Executor9get_stats
FNDA:0,_RNvNtCs8vv7mWF5ug8_2vx8executor12execute_tool
FNF:29
FNH:0
DA:17,0
DA:18,0
DA:19,0
DA:20,0
DA:21,0
DA:22,0
DA:23,0
DA:26,0
DA:27,0
DA:28,0
DA:29,0
DA:30,0
DA:31,0
DA:34,0
DA:35,0
DA:36,0
DA:37,0
DA:38,0
DA:39,0
DA:42,0
DA:43,0
DA:44,0
DA:45,0
DA:46,0
DA:47,0
DA:50,0
DA:51,0
DA:52,0
DA:53,0
DA:54,0
DA:55,0
DA:58,0
DA:59,0
DA:60,0
DA:61,0
DA:62,0
DA:63,0
DA:64,0
DA:66,0
DA:67,0
DA:68,0
DA:70,0
DA:71,0
DA:72,0
DA:73,0
DA:75,0
DA:76,0
DA:77,0
DA:78,0
DA:79,0
DA:80,0
DA:81,0
DA:83,0
DA:84,0
DA:85,0
DA:86,0
DA:87,0
DA:88,0
DA:89,0
DA:92,0
DA:95,0
DA:96,0
DA:97,0
DA:100,0
DA:101,0
DA:102,0
DA:103,0
DA:104,0
DA:105,0
DA:106,0
DA:107,0
DA:110,0
DA:112,0
DA:114,0
DA:117,0
DA:119,0
DA:120,0
DA:121,0
DA:122,0
DA:123,0
DA:124,0
DA:125,0
DA:126,0
DA:129,0
DA:130,0
DA:131,0
DA:132,0
DA:135,0
DA:136,0
DA:137,0
DA:138,0
DA:139,0
DA:140,0
DA:141,0
DA:142,0
DA:145,0
DA:146,0
DA:147,0
DA:148,0
DA:149,0
DA:150,0
DA:151,0
DA:153,0
DA:154,0
DA:157,0
DA:158,0
DA:159,0
DA:160,0
DA:163,0
DA:164,0
DA:165,0
DA:166,0
DA:167,0
DA:169,0
DA:170,0
DA:173,0
DA:174,0
DA:177,0
DA:178,0
DA:179,0
DA:180,0
DA:183,0
DA:184,0
DA:185,0
DA:186,0
DA:189,0
DA:190,0
DA:191,0
DA:192,0
DA:193,0
DA:194,0
DA:195,0
DA:197,0
DA:198,0
DA:201,0
DA:202,0
DA:203,0
DA:206,0
DA:207,0
DA:208,0
DA:209,0
DA:212,0
DA:213,0
DA:214,0
DA:215,0
DA:218,0
DA:219,0
DA:220,0
DA:221,0
DA:224,0
DA:225,0
DA:226,0
DA:227,0
DA:228,0
DA:229,0
DA:230,0
DA:231,0
DA:232,0
DA:235,0
DA:236,0
DA:237,0
DA:240,0
DA:241,0
DA:242,0
DA:243,0
DA:244,0
DA:245,0
DA:246,0
DA:247,0
DA:249,0
DA:250,0
DA:251,0
DA:254,0
DA:255,0
DA:256,0
DA:257,0
DA:261,0
DA:262,0
DA:265,0
DA:266,0
DA:267,0
DA:268,0
DA:269,0
DA:271,0
DA:272,0
DA:273,0
DA:274,0
DA:275,0
DA:278,0
DA:279,0
DA:281,0
DA:282,0
DA:283,0
DA:284,0
DA:285,0
DA:286,0
DA:287,0
DA:288,0
DA:289,0
DA:290,0
DA:291,0
DA:293,0
DA:294,0
DA:295,0
DA:296,0
DA:299,0
DA:302,0
DA:303,0
DA:307,0
DA:308,0
DA:309,0
DA:310,0
BRF:0
BRH:0
LF:220
LH:0
end_of_record
SF:C:\github\mcpx\src\install_configs.rs
FN:19,_RNCNvNtCs8vv7mWF5ug8_2vx15install_configs20get_tool_install_dir0B5_
FN:143,_RNvNtCs8vv7mWF5ug8_2vx15install_configs13get_go_config
FN:24,_RNvNtCs8vv7mWF5ug8_2vx15install_configs13get_uv_config
FN:79,_RNvNtCs8vv7mWF5ug8_2vx15install_configs15get_node_config
FN:201,_RNvNtCs8vv7mWF5ug8_2vx15install_configs15get_rust_config
FN:5,_RNvNtCs8vv7mWF5ug8_2vx15install_configs18get_install_config
FN:18,_RNvNtCs8vv7mWF5ug8_2vx15install_configs20get_tool_install_dir
FN:270,_RNvNtCs8vv7mWF5ug8_2vx15install_configs21supports_auto_install
FN:229,_RNvNtCs8vv7mWF5ug8_2vx15install_configs29get_available_install_methods
FN:275,_RNvNtCs8vv7mWF5ug8_2vx15install_configs31get_manual_install_instructions
FN:19,_RNCNvNtCse561JCZuupE_2vx15install_configs20get_tool_install_dir0B5_
FN:143,_RNvNtCse561JCZuupE_2vx15install_configs13get_go_config
FN:24,_RNvNtCse561JCZuupE_2vx15install_configs13get_uv_config
FN:79,_RNvNtCse561JCZuupE_2vx15install_configs15get_node_config
FN:201,_RNvNtCse561JCZuupE_2vx15install_configs15get_rust_config
FN:5,_RNvNtCse561JCZuupE_2vx15install_configs18get_install_config
FN:18,_RNvNtCse561JCZuupE_2vx15install_configs20get_tool_install_dir
FN:229,_RNvNtCse561JCZuupE_2vx15install_configs29get_available_install_methods
FN:275,_RNvNtCse561JCZuupE_2vx15install_configs31get_manual_install_instructions
FN:270,_RNvNtCse561JCZuupE_2vx15install_configs21supports_auto_install
FNDA:0,_RNCNvNtCs8vv7mWF5ug8_2vx15install_configs20get_tool_install_dir0B5_
FNDA:1,_RNvNtCs8vv7mWF5ug8_2vx15install_configs13get_go_config
FNDA:10,_RNvNtCs8vv7mWF5ug8_2vx15install_configs13get_uv_config
FNDA:1,_RNvNtCs8vv7mWF5ug8_2vx15install_configs15get_node_config
FNDA:1,_RNvNtCs8vv7mWF5ug8_2vx15install_configs15get_rust_config
FNDA:15,_RNvNtCs8vv7mWF5ug8_2vx15install_configs18get_install_config
FNDA:15,_RNvNtCs8vv7mWF5ug8_2vx15install_configs20get_tool_install_dir
FNDA:34,_RNvNtCs8vv7mWF5ug8_2vx15install_configs21supports_auto_install
FNDA:0,_RNvNtCs8vv7mWF5ug8_2vx15install_configs29get_available_install_methods
FNDA:0,_RNvNtCs8vv7mWF5ug8_2vx15install_configs31get_manual_install_instructions
FNDA:0,_RNCNvNtCse561JCZuupE_2vx15install_configs20get_tool_install_dir0B5_
FNDA:0,_RNvNtCse561JCZuupE_2vx15install_configs13get_go_config
FNDA:0,_RNvNtCse561JCZuupE_2vx15install_configs13get_uv_config
FNDA:0,_RNvNtCse561JCZuupE_2vx15install_configs15get_node_config
FNDA:0,_RNvNtCse561JCZuupE_2vx15install_configs15get_rust_config
FNDA:0,_RNvNtCse561JCZuupE_2vx15install_configs18get_install_config
FNDA:0,_RNvNtCse561JCZuupE_2vx15install_configs20get_tool_install_dir
FNDA:0,_RNvNtCse561JCZuupE_2vx15install_configs29get_available_install_methods
FNDA:0,_RNvNtCse561JCZuupE_2vx15install_configs31get_manual_install_instructions
FNDA:9,_RNvNtCse561JCZuupE_2vx15install_configs21supports_auto_install
FNF:10
FNH:7
DA:5,15
DA:6,15
DA:7,15
DA:8,15
DA:9,15
DA:10,5
DA:11,4
DA:12,3
DA:13,2
DA:15,15
DA:18,15
DA:19,15
DA:20,15
DA:21,15
DA:24,10
DA:25,10
DA:27,10
DA:28,9
DA:29,9
DA:31,1
DA:33,10
DA:34,10
DA:35,10
DA:36,10
DA:37,10
DA:38,10
DA:39,0
DA:41,0
DA:42,0
DA:43,0
DA:45,0
DA:47,0
DA:48,0
DA:49,0
DA:50,0
DA:51,0
DA:52,0
DA:55,0
DA:56,0
DA:57,0
DA:59,0
DA:61,0
DA:62,0
DA:63,0
DA:64,0
DA:65,0
DA:66,0
DA:69,10
DA:70,10
DA:71,10
DA:72,10
DA:73,10
DA:74,10
DA:75,10
DA:76,10
DA:79,1
DA:80,1
DA:82,1
DA:83,1
DA:85,0
DA:87,1
DA:88,1
DA:89,1
DA:90,1
DA:91,1
DA:92,1
DA:93,1
DA:94,1
DA:95,1
DA:96,1
DA:97,0
DA:99,0
DA:100,0
DA:102,0
DA:104,0
DA:105,0
DA:106,0
DA:107,0
DA:108,0
DA:109,0
DA:110,0
DA:111,0
DA:112,0
DA:113,0
DA:116,0
DA:117,0
DA:119,0
DA:121,0
DA:122,0
DA:123,0
DA:124,0
DA:125,0
DA:126,0
DA:127,0
DA:128,0
DA:129,0
DA:130,0
DA:133,1
DA:134,1
DA:135,1
DA:136,1
DA:137,1
DA:138,1
DA:139,1
DA:140,1
DA:143,1
DA:144,1
DA:146,1
DA:147,1
DA:149,0
DA:151,1
DA:152,1
DA:153,1
DA:154,1
DA:155,1
DA:156,1
DA:157,1
DA:158,0
DA:160,0
DA:161,0
DA:163,0
DA:165,0
DA:166,0
DA:167,0
DA:168,0
DA:169,0
DA:170,0
DA:171,0
DA:172,0
DA:173,0
DA:174,0
DA:177,0
DA:178,0
DA:180,0
DA:182,0
DA:183,0
DA:184,0
DA:185,0
DA:186,0
DA:187,0
DA:188,0
DA:191,1
DA:192,1
DA:193,1
DA:194,1
DA:195,1
DA:196,1
DA:197,1
DA:198,1
DA:201,1
DA:203,1
DA:204,1
DA:205,1
DA:206,1
DA:207,1
DA:208,1
DA:209,1
DA:211,0
DA:212,0
DA:213,0
DA:214,0
DA:215,0
DA:216,0
DA:219,1
DA:220,1
DA:221,1
DA:222,1
DA:223,1
DA:224,1
DA:225,1
DA:226,1
DA:229,0
DA:230,0
DA:231,0
DA:232,0
DA:233,0
DA:234,0
DA:235,0
DA:237,0
DA:240,0
DA:241,0
DA:242,0
DA:243,0
DA:245,0
DA:247,0
DA:249,0
DA:250,0
DA:251,0
DA:252,0
DA:254,0
DA:257,0
DA:258,0
DA:259,0
DA:260,0
DA:262,0
DA:265,0
DA:267,0
DA:270,43
DA:271,43
DA:272,43
DA:275,0
DA:276,0
DA:277,0
DA:278,0
DA:279,0
DA:280,0
DA:281,0
DA:282,0
DA:283,0
DA:284,0
DA:285,0
DA:286,0
DA:287,0
DA:288,0
DA:289,0
DA:290,0
DA:291,0
DA:292,0
DA:293,0
DA:295,0
DA:296,0
DA:297,0
DA:298,0
DA:301,0
BRF:0
BRH:0
LF:225
LH:94
end_of_record
SF:C:\github\mcpx\src\installer.rs
FN:238,_RNCNCNvMs_NtCs8vv7mWF5ug8_2vx9installerNtB8_9Installer14install_binary00Ba_
FN:86,_RNCNCNvMs_NtCs8vv7mWF5ug8_2vx9installerNtB8_9Installer20install_from_archive00Ba_
FN:234,_RNCNvMs_NtCs8vv7mWF5ug8_2vx9installerNtB6_9Installer14install_binary0B8_
FN:186,_RNCNvMs_NtCs8vv7mWF5ug8_2vx9installerNtB6_9Installer19install_from_script0B8_
FN:82,_RNCNvMs_NtCs8vv7mWF5ug8_2vx9installerNtB6_9Installer20install_from_archive0B8_
FN:152,_RNCNvMs_NtCs8vv7mWF5ug8_2vx9installerNtB6_9Installer28install_from_package_manager0B8_
FN:57,_RNCNvMs_NtCs8vv7mWF5ug8_2vx9installerNtB6_9Installer7install0B8_
FN:373,_RNCNvNtCs8vv7mWF5ug8_2vx9installer12install_tool0B5_
FN:299,_RNvMs_NtCs8vv7mWF5ug8_2vx9installerNtB4_9Installer11extract_zip
FN:331,_RNvMs_NtCs8vv7mWF5ug8_2vx9installerNtB4_9Installer14extract_tar_gz
FN:340,_RNvMs_NtCs8vv7mWF5ug8_2vx9installerNtB4_9Installer14extract_tar_xz
FN:234,_RNvMs_NtCs8vv7mWF5ug8_2vx9installerNtB4_9Installer14install_binary
FN:346,_RNvMs_NtCs8vv7mWF5ug8_2vx9installerNtB4_9Installer15find_executable
FN:182,_RNvMs_NtCs8vv7mWF5ug8_2vx9installerNtB4_9Installer19install_from_script
FN:78,_RNvMs_NtCs8vv7mWF5ug8_2vx9installerNtB4_9Installer20install_from_archive
FN:147,_RNvMs_NtCs8vv7mWF5ug8_2vx9installerNtB4_9Installer28install_from_package_manager
FN:50,_RNvMs_NtCs8vv7mWF5ug8_2vx9installerNtB4_9Installer3new
FN:57,_RNvMs_NtCs8vv7mWF5ug8_2vx9installerNtB4_9Installer7install
FN:370,_RNvNtCs8vv7mWF5ug8_2vx9installer12install_tool
FN:44,_RNvXNtCs8vv7mWF5ug8_2vx9installerNtB2_9InstallerNtNtCsaDtq73Zt8sT_4core7default7Default7default
FN:238,_RNCNCNvMs_NtCse561JCZuupE_2vx9installerNtB8_9Installer14install_binary00Ba_
FN:86,_RNCNCNvMs_NtCse561JCZuupE_2vx9installerNtB8_9Installer20install_from_archive00Ba_
FN:234,_RNCNvMs_NtCse561JCZuupE_2vx9installerNtB6_9Installer14install_binary0B8_
FN:186,_RNCNvMs_NtCse561JCZuupE_2vx9installerNtB6_9Installer19install_from_script0B8_
FN:82,_RNCNvMs_NtCse561JCZuupE_2vx9installerNtB6_9Installer20install_from_archive0B8_
FN:152,_RNCNvMs_NtCse561JCZuupE_2vx9installerNtB6_9Installer28install_from_package_manager0B8_
FN:57,_RNCNvMs_NtCse561JCZuupE_2vx9installerNtB6_9Installer7install0B8_
FN:373,_RNCNvNtCse561JCZuupE_2vx9installer12install_tool0B5_
FN:299,_RNvMs_NtCse561JCZuupE_2vx9installerNtB4_9Installer11extract_zip
FN:331,_RNvMs_NtCse561JCZuupE_2vx9installerNtB4_9Installer14extract_tar_gz
FN:340,_RNvMs_NtCse561JCZuupE_2vx9installerNtB4_9Installer14extract_tar_xz
FN:234,_RNvMs_NtCse561JCZuupE_2vx9installerNtB4_9Installer14install_binary
FN:346,_RNvMs_NtCse561JCZuupE_2vx9installerNtB4_9Installer15find_executable
FN:182,_RNvMs_NtCse561JCZuupE_2vx9installerNtB4_9Installer19install_from_script
FN:78,_RNvMs_NtCse561JCZuupE_2vx9installerNtB4_9Installer20install_from_archive
FN:147,_RNvMs_NtCse561JCZuupE_2vx9installerNtB4_9Installer28install_from_package_manager
FN:50,_RNvMs_NtCse561JCZuupE_2vx9installerNtB4_9Installer3new
FN:57,_RNvMs_NtCse561JCZuupE_2vx9installerNtB4_9Installer7install
FN:370,_RNvNtCse561JCZuupE_2vx9installer12install_tool
FN:44,_RNvXNtCse561JCZuupE_2vx9installerNtB2_9InstallerNtNtCsaDtq73Zt8sT_4core7default7Default7default
FNDA:0,_RNCNCNvMs_NtCs8vv7mWF5ug8_2vx9installerNtB8_9Installer14install_binary00Ba_
FNDA:0,_RNCNCNvMs_NtCs8vv7mWF5ug8_2vx9installerNtB8_9Installer20install_from_archive00Ba_
FNDA:0,_RNCNvMs_NtCs8vv7mWF5ug8_2vx9installerNtB6_9Installer14install_binary0B8_
FNDA:0,_RNCNvMs_NtCs8vv7mWF5ug8_2vx9installerNtB6_9Installer19install_from_script0B8_
FNDA:0,_RNCNvMs_NtCs8vv7mWF5ug8_2vx9installerNtB6_9Installer20install_from_archive0B8_
FNDA:0,_RNCNvMs_NtCs8vv7mWF5ug8_2vx9installerNtB6_9Installer28install_from_package_manager0B8_
FNDA:0,_RNCNvMs_NtCs8vv7mWF5ug8_2vx9installerNtB6_9Installer7install0B8_
FNDA:0,_RNCNvNtCs8vv7mWF5ug8_2vx9installer12install_tool0B5_
FNDA:0,_RNvMs_NtCs8vv7mWF5ug8_2vx9installerNtB4_9Installer11extract_zip
FNDA:0,_RNvMs_NtCs8vv7mWF5ug8_2vx9installerNtB4_9Installer14extract_tar_gz
FNDA:0,_RNvMs_NtCs8vv7mWF5ug8_2vx9installerNtB4_9Installer14extract_tar_xz
FNDA:0,_RNvMs_NtCs8vv7mWF5ug8_2vx9installerNtB4_9Installer14install_binary
FNDA:0,_RNvMs_NtCs8vv7mWF5ug8_2vx9installerNtB4_9Installer15find_executable
FNDA:0,_RNvMs_NtCs8vv7mWF5ug8_2vx9installerNtB4_9Installer19install_from_script
FNDA:0,_RNvMs_NtCs8vv7mWF5ug8_2vx9installerNtB4_9Installer20install_from_archive
FNDA:0,_RNvMs_NtCs8vv7mWF5ug8_2vx9installerNtB4_9Installer28install_from_package_manager
FNDA:0,_RNvMs_NtCs8vv7mWF5ug8_2vx9installerNtB4_9Installer3new
FNDA:0,_RNvMs_NtCs8vv7mWF5ug8_2vx9installerNtB4_9Installer7install
FNDA:0,_RNvNtCs8vv7mWF5ug8_2vx9installer12install_tool
FNDA:0,_RNvXNtCs8vv7mWF5ug8_2vx9installerNtB2_9InstallerNtNtCsaDtq73Zt8sT_4core7default7Default7default
FNDA:0,_RNCNCNvMs_NtCse561JCZuupE_2vx9installerNtB8_9Installer14install_binary00Ba_
FNDA:0,_RNCNCNvMs_NtCse561JCZuupE_2vx9installerNtB8_9Installer20install_from_archive00Ba_
FNDA:0,_RNCNvMs_NtCse561JCZuupE_2vx9installerNtB6_9Installer14install_binary0B8_
FNDA:0,_RNCNvMs_NtCse561JCZuupE_2vx9installerNtB6_9Installer19install_from_script0B8_
FNDA:0,_RNCNvMs_NtCse561JCZuupE_2vx9installerNtB6_9Installer20install_from_archive0B8_
FNDA:0,_RNCNvMs_NtCse561JCZuupE_2vx9installerNtB6_9Installer28install_from_package_manager0B8_
FNDA:0,_RNCNvMs_NtCse561JCZuupE_2vx9installerNtB6_9Installer7install0B8_
FNDA:0,_RNCNvNtCse561JCZuupE_2vx9installer12install_tool0B5_
FNDA:0,_RNvMs_NtCse561JCZuupE_2vx9installerNtB4_9Installer11extract_zip
FNDA:0,_RNvMs_NtCse561JCZuupE_2vx9installerNtB4_9Installer14extract_tar_gz
FNDA:0,_RNvMs_NtCse561JCZuupE_2vx9installerNtB4_9Installer14extract_tar_xz
FNDA:0,_RNvMs_NtCse561JCZuupE_2vx9installerNtB4_9Installer14install_binary
FNDA:0,_RNvMs_NtCse561JCZuupE_2vx9installerNtB4_9Installer15find_executable
FNDA:0,_RNvMs_NtCse561JCZuupE_2vx9installerNtB4_9Installer19install_from_script
FNDA:0,_RNvMs_NtCse561JCZuupE_2vx9installerNtB4_9Installer20install_from_archive
FNDA:0,_RNvMs_NtCse561JCZuupE_2vx9installerNtB4_9Installer28install_from_package_manager
FNDA:0,_RNvMs_NtCse561JCZuupE_2vx9installerNtB4_9Installer3new
FNDA:0,_RNvMs_NtCse561JCZuupE_2vx9installerNtB4_9Installer7install
FNDA:0,_RNvNtCse561JCZuupE_2vx9installer12install_tool
FNDA:0,_RNvXNtCse561JCZuupE_2vx9installerNtB2_9InstallerNtNtCsaDtq73Zt8sT_4core7default7Default7default
FNF:20
FNH:0
DA:44,0
DA:45,0
DA:46,0
DA:50,0
DA:51,0
DA:52,0
DA:53,0
DA:54,0
DA:57,0
DA:58,0
DA:59,0
DA:60,0
DA:61,0
DA:62,0
DA:63,0
DA:64,0
DA:66,0
DA:67,0
DA:68,0
DA:69,0
DA:70,0
DA:72,0
DA:73,0
DA:75,0
DA:78,0
DA:79,0
DA:80,0
DA:81,0
DA:82,0
DA:83,0
DA:84,0
DA:85,0
DA:86,0
DA:88,0
DA:91,0
DA:92,0
DA:94,0
DA:97,0
DA:98,0
DA:99,0
DA:101,0
DA:105,0
DA:106,0
DA:107,0
DA:110,0
DA:111,0
DA:112,0
DA:113,0
DA:115,0
DA:116,0
DA:117,0
DA:120,0
DA:121,0
DA:122,0
DA:124,0
DA:125,0
DA:126,0
DA:127,0
DA:128,0
DA:129,0
DA:130,0
DA:133,0
DA:136,0
DA:138,0
DA:139,0
DA:140,0
DA:141,0
DA:142,0
DA:143,0
DA:144,0
DA:147,0
DA:148,0
DA:149,0
DA:150,0
DA:151,0
DA:152,0
DA:153,0
DA:155,0
DA:156,0
DA:157,0
DA:158,0
DA:159,0
DA:160,0
DA:161,0
DA:162,0
DA:163,0
DA:164,0
DA:167,0
DA:168,0
DA:169,0
DA:170,0
DA:171,0
DA:172,0
DA:173,0
DA:174,0
DA:175,0
DA:177,0
DA:179,0
DA:182,0
DA:183,0
DA:184,0
DA:185,0
DA:186,0
DA:187,0
DA:189,0
DA:190,0
DA:192,0
DA:193,0
DA:194,0
DA:206,0
DA:207,0
DA:208,0
DA:209,0
DA:210,0
DA:211,0
DA:212,0
DA:213,0
DA:214,0
DA:216,0
DA:219,0
DA:220,0
DA:221,0
DA:222,0
DA:223,0
DA:224,0
DA:225,0
DA:226,0
DA:227,0
DA:229,0
DA:231,0
DA:234,0
DA:235,0
DA:236,0
DA:237,0
DA:238,0
DA:240,0
DA:242,0
DA:245,0
DA:246,0
DA:247,0
DA:249,0
DA:253,0
DA:254,0
DA:255,0
DA:258,0
DA:259,0
DA:260,0
DA:261,0
DA:263,0
DA:264,0
DA:265,0
DA:268,0
DA:269,0
DA:270,0
DA:272,0
DA:273,0
DA:275,0
DA:278,0
DA:279,0
DA:290,0
DA:291,0
DA:292,0
DA:293,0
DA:294,0
DA:295,0
DA:296,0
DA:299,0
DA:300,0
DA:301,0
DA:303,0
DA:304,0
DA:305,0
DA:306,0
DA:307,0
DA:308,0
DA:310,0
DA:311,0
DA:312,0
DA:313,0
DA:314,0
DA:327,0
DA:328,0
DA:331,0
DA:332,0
DA:333,0
DA:334,0
DA:335,0
DA:336,0
DA:337,0
DA:340,0
DA:341,0
DA:342,0
DA:343,0
DA:346,0
DA:347,0
DA:348,0
DA:350,0
DA:354,0
DA:355,0
DA:356,0
DA:357,0
DA:358,0
DA:361,0
DA:362,0
DA:363,0
DA:364,0
DA:365,0
DA:366,0
DA:370,0
DA:371,0
DA:372,0
DA:373,0
DA:374,0
DA:375,0
DA:376,0
DA:377,0
DA:379,0
DA:380,0
DA:381,0
DA:382,0
DA:383,0
DA:384,0
DA:386,0
DA:389,0
DA:390,0
DA:394,0
DA:395,0
DA:396,0
DA:397,0
BRF:0
BRH:0
LF:237
LH:0
end_of_record
SF:C:\github\mcpx\src\main.rs
FN:7,_RNCNvCscKPEKNpX3wp_2vx4main0B3_
FN:7,_RNvCscKPEKNpX3wp_2vx4main
FN:7,_RNvCsgEqbR8KZSOZ_2vx4main
FN:7,_RNCNvCsgEqbR8KZSOZ_2vx4main0B3_
FNDA:0,_RNCNvCscKPEKNpX3wp_2vx4main0B3_
FNDA:0,_RNvCscKPEKNpX3wp_2vx4main
FNDA:0,_RNvCsgEqbR8KZSOZ_2vx4main
FNDA:0,_RNCNvCsgEqbR8KZSOZ_2vx4main0B3_
FNF:2
FNH:0
DA:7,0
DA:8,0
DA:9,0
DA:10,0
DA:11,0
DA:12,0
DA:13,0
DA:14,0
BRF:0
BRH:0
LF:15
LH:0
end_of_record
SF:C:\github\mcpx\src\package_ecosystem.rs
FN:317,_RNCNvMs0_NtCs8vv7mWF5ug8_2vx17package_ecosystemNtB7_11ProjectType10ecosystems0B9_
FN:202,_RNvMNtCs8vv7mWF5ug8_2vx17package_ecosystemNtB2_24PackageEcosystemRegistry12get_managers
FN:248,_RNvMNtCs8vv7mWF5ug8_2vx17package_ecosystemNtB2_24PackageEcosystemRegistry15list_ecosystems
FN:196,_RNvMNtCs8vv7mWF5ug8_2vx17package_ecosystemNtB2_24PackageEcosystemRegistry16register_manager
FN:236,_RNvMNtCs8vv7mWF5ug8_2vx17package_ecosystemNtB2_24PackageEcosystemRegistry19get_manager_by_name
FN:210,_RNvMNtCs8vv7mWF5ug8_2vx17package_ecosystemNtB2_24PackageEcosystemRegistry21get_preferred_manager
FN:188,_RNvMNtCs8vv7mWF5ug8_2vx17package_ecosystemNtB2_24PackageEcosystemRegistry3new
FN:306,_RNvMs0_NtCs8vv7mWF5ug8_2vx17package_ecosystemNtB5_11ProjectType10ecosystems
FN:271,_RNvMs_NtCs8vv7mWF5ug8_2vx17package_ecosystemNtB4_15ProjectDetector19detect_project_type
FN:259,_RNvMs_NtCs8vv7mWF5ug8_2vx17package_ecosystemNtB4_15ProjectDetector3new
FN:362,_RNvXs1_NtCs8vv7mWF5ug8_2vx17package_ecosystemNtB5_18JavaScriptDetectorNtB5_19ProjectTypeDetector6detect
FN:379,_RNvXs2_NtCs8vv7mWF5ug8_2vx17package_ecosystemNtB5_14PythonDetectorNtB5_19ProjectTypeDetector6detect
FN:400,_RNvXs3_NtCs8vv7mWF5ug8_2vx17package_ecosystemNtB5_12RustDetectorNtB5_19ProjectTypeDetector6detect
FN:413,_RNvXs4_NtCs8vv7mWF5ug8_2vx17package_ecosystemNtB5_10GoDetectorNtB5_19ProjectTypeDetector6detect
FN:423,_RNvXs5_NtCs8vv7mWF5ug8_2vx17package_ecosystemNtB5_24PackageEcosystemRegistryNtNtCsaDtq73Zt8sT_4core7default7Default7default
FN:429,_RNvXs6_NtCs8vv7mWF5ug8_2vx17package_ecosystemNtB5_15ProjectDetectorNtNtCsaDtq73Zt8sT_4core7default7Default7default
FN:317,_RNCNvMs0_NtCse561JCZuupE_2vx17package_ecosystemNtB7_11ProjectType10ecosystems0B9_
FN:202,_RNvMNtCse561JCZuupE_2vx17package_ecosystemNtB2_24PackageEcosystemRegistry12get_managers
FN:236,_RNvMNtCse561JCZuupE_2vx17package_ecosystemNtB2_24PackageEcosystemRegistry19get_manager_by_name
FN:210,_RNvMNtCse561JCZuupE_2vx17package_ecosystemNtB2_24PackageEcosystemRegistry21get_preferred_manager
FN:306,_RNvMs0_NtCse561JCZuupE_2vx17package_ecosystemNtB5_11ProjectType10ecosystems
FN:271,_RNvMs_NtCse561JCZuupE_2vx17package_ecosystemNtB4_15ProjectDetector19detect_project_type
FN:423,_RNvXs5_NtCse561JCZuupE_2vx17package_ecosystemNtB5_24PackageEcosystemRegistryNtNtCsaDtq73Zt8sT_4core7default7Default7default
FN:429,_RNvXs6_NtCse561JCZuupE_2vx17package_ecosystemNtB5_15ProjectDetectorNtNtCsaDtq73Zt8sT_4core7default7Default7default
FN:248,_RNvMNtCse561JCZuupE_2vx17package_ecosystemNtB2_24PackageEcosystemRegistry15list_ecosystems
FN:196,_RNvMNtCse561JCZuupE_2vx17package_ecosystemNtB2_24PackageEcosystemRegistry16register_manager
FN:188,_RNvMNtCse561JCZuupE_2vx17package_ecosystemNtB2_24PackageEcosystemRegistry3new
FN:259,_RNvMs_NtCse561JCZuupE_2vx17package_ecosystemNtB4_15ProjectDetector3new
FN:362,_RNvXs1_NtCse561JCZuupE_2vx17package_ecosystemNtB5_18JavaScriptDetectorNtB5_19ProjectTypeDetector6detect
FN:379,_RNvXs2_NtCse561JCZuupE_2vx17package_ecosystemNtB5_14PythonDetectorNtB5_19ProjectTypeDetector6detect
FN:400,_RNvXs3_NtCse561JCZuupE_2vx17package_ecosystemNtB5_12RustDetectorNtB5_19ProjectTypeDetector6detect
FN:413,_RNvXs4_NtCse561JCZuupE_2vx17package_ecosystemNtB5_10GoDetectorNtB5_19ProjectTypeDetector6detect
FNDA:0,_RNCNvMs0_NtCs8vv7mWF5ug8_2vx17package_ecosystemNtB7_11ProjectType10ecosystems0B9_
FNDA:0,_RNvMNtCs8vv7mWF5ug8_2vx17package_ecosystemNtB2_24PackageEcosystemRegistry12get_managers
FNDA:0,_RNvMNtCs8vv7mWF5ug8_2vx17package_ecosystemNtB2_24PackageEcosystemRegistry15list_ecosystems
FNDA:0,_RNvMNtCs8vv7mWF5ug8_2vx17package_ecosystemNtB2_24PackageEcosystemRegistry16register_manager
FNDA:0,_RNvMNtCs8vv7mWF5ug8_2vx17package_ecosystemNtB2_24PackageEcosystemRegistry19get_manager_by_name
FNDA:0,_RNvMNtCs8vv7mWF5ug8_2vx17package_ecosystemNtB2_24PackageEcosystemRegistry21get_preferred_manager
FNDA:0,_RNvMNtCs8vv7mWF5ug8_2vx17package_ecosystemNtB2_24PackageEcosystemRegistry3new
FNDA:0,_RNvMs0_NtCs8vv7mWF5ug8_2vx17package_ecosystemNtB5_11ProjectType10ecosystems
FNDA:0,_RNvMs_NtCs8vv7mWF5ug8_2vx17package_ecosystemNtB4_15ProjectDetector19detect_project_type
FNDA:0,_RNvMs_NtCs8vv7mWF5ug8_2vx17package_ecosystemNtB4_15ProjectDetector3new
FNDA:0,_RNvXs1_NtCs8vv7mWF5ug8_2vx17package_ecosystemNtB5_18JavaScriptDetectorNtB5_19ProjectTypeDetector6detect
FNDA:0,_RNvXs2_NtCs8vv7mWF5ug8_2vx17package_ecosystemNtB5_14PythonDetectorNtB5_19ProjectTypeDetector6detect
FNDA:0,_RNvXs3_NtCs8vv7mWF5ug8_2vx17package_ecosystemNtB5_12RustDetectorNtB5_19ProjectTypeDetector6detect
FNDA:0,_RNvXs4_NtCs8vv7mWF5ug8_2vx17package_ecosystemNtB5_10GoDetectorNtB5_19ProjectTypeDetector6detect
FNDA:0,_RNvXs5_NtCs8vv7mWF5ug8_2vx17package_ecosystemNtB5_24PackageEcosystemRegistryNtNtCsaDtq73Zt8sT_4core7default7Default7default
FNDA:0,_RNvXs6_NtCs8vv7mWF5ug8_2vx17package_ecosystemNtB5_15ProjectDetectorNtNtCsaDtq73Zt8sT_4core7default7Default7default
FNDA:0,_RNCNvMs0_NtCse561JCZuupE_2vx17package_ecosystemNtB7_11ProjectType10ecosystems0B9_
FNDA:0,_RNvMNtCse561JCZuupE_2vx17package_ecosystemNtB2_24PackageEcosystemRegistry12get_managers
FNDA:0,_RNvMNtCse561JCZuupE_2vx17package_ecosystemNtB2_24PackageEcosystemRegistry19get_manager_by_name
FNDA:0,_RNvMNtCse561JCZuupE_2vx17package_ecosystemNtB2_24PackageEcosystemRegistry21get_preferred_manager
FNDA:0,_RNvMs0_NtCse561JCZuupE_2vx17package_ecosystemNtB5_11ProjectType10ecosystems
FNDA:0,_RNvMs_NtCse561JCZuupE_2vx17package_ecosystemNtB4_15ProjectDetector19detect_project_type
FNDA:0,_RNvXs5_NtCse561JCZuupE_2vx17package_ecosystemNtB5_24PackageEcosystemRegistryNtNtCsaDtq73Zt8sT_4core7default7Default7default
FNDA:0,_RNvXs6_NtCse561JCZuupE_2vx17package_ecosystemNtB5_15ProjectDetectorNtNtCsaDtq73Zt8sT_4core7default7Default7default
FNDA:1,_RNvMNtCse561JCZuupE_2vx17package_ecosystemNtB2_24PackageEcosystemRegistry15list_ecosystems
FNDA:4,_RNvMNtCse561JCZuupE_2vx17package_ecosystemNtB2_24PackageEcosystemRegistry16register_manager
FNDA:2,_RNvMNtCse561JCZuupE_2vx17package_ecosystemNtB2_24PackageEcosystemRegistry3new
FNDA:2,_RNvMs_NtCse561JCZuupE_2vx17package_ecosystemNtB4_15ProjectDetector3new
FNDA:0,_RNvXs1_NtCse561JCZuupE_2vx17package_ecosystemNtB5_18JavaScriptDetectorNtB5_19ProjectTypeDetector6detect
FNDA:0,_RNvXs2_NtCse561JCZuupE_2vx17package_ecosystemNtB5_14PythonDetectorNtB5_19ProjectTypeDetector6detect
FNDA:0,_RNvXs3_NtCse561JCZuupE_2vx17package_ecosystemNtB5_12RustDetectorNtB5_19ProjectTypeDetector6detect
FNDA:0,_RNvXs4_NtCse561JCZuupE_2vx17package_ecosystemNtB5_10GoDetectorNtB5_19ProjectTypeDetector6detect
FNF:16
FNH:4
DA:188,2
DA:189,2
DA:190,2
DA:191,2
DA:192,2
DA:193,2
DA:196,4
DA:197,4
DA:198,4
DA:199,4
DA:202,0
DA:203,0
DA:204,0
DA:205,0
DA:206,0
DA:207,0
DA:210,0
DA:211,0
DA:212,0
DA:213,0
DA:214,0
DA:216,0
DA:217,0
DA:218,0
DA:219,0
DA:220,0
DA:221,0
DA:224,0
DA:225,0
DA:226,0
DA:227,0
DA:228,0
DA:229,0
DA:232,0
DA:233,0
DA:236,0
DA:237,0
DA:238,0
DA:239,0
DA:240,0
DA:241,0
DA:244,0
DA:245,0
DA:248,1
DA:249,1
DA:250,1
DA:259,2
DA:260,2
DA:261,2
DA:262,2
DA:263,2
DA:264,2
DA:265,2
DA:266,2
DA:267,2
DA:268,2
DA:269,2
DA:271,0
DA:272,0
DA:274,0
DA:275,0
DA:276,0
DA:277,0
DA:280,0
DA:281,0
DA:282,0
DA:283,0
DA:285,0
DA:306,0
DA:307,0
DA:308,0
DA:309,0
DA:310,0
DA:311,0
DA:312,0
DA:313,0
DA:314,0
DA:315,0
DA:316,0
DA:317,0
DA:318,0
DA:320,0
DA:362,0
DA:363,0
DA:364,0
DA:365,0
DA:366,0
DA:368,0
DA:370,0
DA:372,0
DA:379,0
DA:380,0
DA:381,0
DA:382,0
DA:383,0
DA:384,0
DA:385,0
DA:386,0
DA:387,0
DA:389,0
DA:391,0
DA:393,0
DA:400,0
DA:401,0
DA:402,0
DA:404,0
DA:406,0
DA:413,0
DA:414,0
DA:415,0
DA:417,0
DA:419,0
DA:423,0
DA:424,0
DA:425,0
DA:429,0
DA:430,0
DA:431,0
BRF:0
BRH:0
LF:119
LH:24
end_of_record
SF:C:\github\mcpx\src\package_manager.rs
FN:298,_RNCNvMs0_NtCs8vv7mWF5ug8_2vx15package_managerNtB7_14PackageManager9get_stats0B9_
FN:245,_RNCNvMs0_NtCs8vv7mWF5ug8_2vx15package_managerNtB7_14PackageManager7cleanups_0B9_
FN:228,_RNCNvMs0_NtCs8vv7mWF5ug8_2vx15package_managerNtB7_14PackageManager7cleanup0B9_
FN:304,_RNCNvMs0_NtCs8vv7mWF5ug8_2vx15package_managerNtB7_14PackageManager9get_statss_0B9_
FN:83,_RNCNvMs0_NtCs8vv7mWF5ug8_2vx15package_managerNtB7_14PackageManager10get_vx_dir0B9_
FN:130,_RNCNvMs0_NtCs8vv7mWF5ug8_2vx15package_managerNtB7_14PackageManager13list_versions0B9_
FN:177,_RNCNvMs0_NtCs8vv7mWF5ug8_2vx15package_managerNtB7_14PackageManager14remove_version0B9_
FN:182,_RNCNvMs0_NtCs8vv7mWF5ug8_2vx15package_managerNtB7_14PackageManager14remove_versions0_0B9_
FN:181,_RNCNvMs0_NtCs8vv7mWF5ug8_2vx15package_managerNtB7_14PackageManager14remove_versions_0B9_
FN:151,_RNCNvMs0_NtCs8vv7mWF5ug8_2vx15package_managerNtB7_14PackageManager14switch_version0B9_
FN:156,_RNCNvMs0_NtCs8vv7mWF5ug8_2vx15package_managerNtB7_14PackageManager14switch_versions0_0B9_
FN:155,_RNCNvMs0_NtCs8vv7mWF5ug8_2vx15package_managerNtB7_14PackageManager14switch_versions_0B9_
FN:318,_RNCNvMs0_NtCs8vv7mWF5ug8_2vx15package_managerNtB7_14PackageManager16get_version_path0B9_
FN:141,_RNCNvMs0_NtCs8vv7mWF5ug8_2vx15package_managerNtB7_14PackageManager18get_active_version0B9_
FN:251,_RNCNvMs0_NtCs8vv7mWF5ug8_2vx15package_managerNtB7_14PackageManager7cleanups0_0B9_
FN:81,_RNvMs0_NtCs8vv7mWF5ug8_2vx15package_managerNtB5_14PackageManager10get_vx_dir
FN:280,_RNvMs0_NtCs8vv7mWF5ug8_2vx15package_managerNtB5_14PackageManager13check_updates
FN:121,_RNvMs0_NtCs8vv7mWF5ug8_2vx15package_managerNtB5_14PackageManager13list_packages
FN:126,_RNvMs0_NtCs8vv7mWF5ug8_2vx15package_managerNtB5_14PackageManager13list_versions
FN:88,_RNvMs0_NtCs8vv7mWF5ug8_2vx15package_managerNtB5_14PackageManager13save_registry
FN:172,_RNvMs0_NtCs8vv7mWF5ug8_2vx15package_managerNtB5_14PackageManager14remove_version
FN:145,_RNvMs0_NtCs8vv7mWF5ug8_2vx15package_managerNtB5_14PackageManager14switch_version
FN:275,_RNvMs0_NtCs8vv7mWF5ug8_2vx15package_managerNtB5_14PackageManager15get_package_dir
FN:95,_RNvMs0_NtCs8vv7mWF5ug8_2vx15package_managerNtB5_14PackageManager15install_package
FN:316,_RNvMs0_NtCs8vv7mWF5ug8_2vx15package_managerNtB5_14PackageManager16get_version_path
FN:135,_RNvMs0_NtCs8vv7mWF5ug8_2vx15package_managerNtB5_14PackageManager18get_active_version
FN:330,_RNvMs0_NtCs8vv7mWF5ug8_2vx15package_managerNtB5_14PackageManager20list_installed_tools
FN:57,_RNvMs0_NtCs8vv7mWF5ug8_2vx15package_managerNtB5_14PackageManager3new
FN:223,_RNvMs0_NtCs8vv7mWF5ug8_2vx15package_managerNtB5_14PackageManager7cleanup
FN:296,_RNvMs0_NtCs8vv7mWF5ug8_2vx15package_managerNtB5_14PackageManager9get_stats
FN:344,_RNvMs1_NtCs8vv7mWF5ug8_2vx15package_managerNtB5_12PackageStats11format_size
FN:19,_RNvXNtCs8vv7mWF5ug8_2vx15package_managerNtB2_7PackageNtNtCsaDtq73Zt8sT_4core3fmt7Display3fmt
FN:41,_RNvXs_NtCs8vv7mWF5ug8_2vx15package_managerNtB4_15PackageRegistryNtNtCsaDtq73Zt8sT_4core7default7Default7default
FN:83,_RNCNvMs0_NtCse561JCZuupE_2vx15package_managerNtB7_14PackageManager10get_vx_dir0B9_
FN:280,_RNCNvMs0_NtCse561JCZuupE_2vx15package_managerNtB7_14PackageManager13check_updates0B9_
FN:130,_RNCNvMs0_NtCse561JCZuupE_2vx15package_managerNtB7_14PackageManager13list_versions0B9_
FN:177,_RNCNvMs0_NtCse561JCZuupE_2vx15package_managerNtB7_14PackageManager14remove_version0B9_
FN:182,_RNCNvMs0_NtCse561JCZuupE_2vx15package_managerNtB7_14PackageManager14remove_versions0_0B9_
FN:181,_RNCNvMs0_NtCse561JCZuupE_2vx15package_managerNtB7_14PackageManager14remove_versions_0B9_
FN:151,_RNCNvMs0_NtCse561JCZuupE_2vx15package_managerNtB7_14PackageManager14switch_version0B9_
FN:156,_RNCNvMs0_NtCse561JCZuupE_2vx15package_managerNtB7_14PackageManager14switch_versions0_0B9_
FN:155,_RNCNvMs0_NtCse561JCZuupE_2vx15package_managerNtB7_14PackageManager14switch_versions_0B9_
FN:318,_RNCNvMs0_NtCse561JCZuupE_2vx15package_managerNtB7_14PackageManager16get_version_path0B9_
FN:141,_RNCNvMs0_NtCse561JCZuupE_2vx15package_managerNtB7_14PackageManager18get_active_version0B9_
FN:228,_RNCNvMs0_NtCse561JCZuupE_2vx15package_managerNtB7_14PackageManager7cleanup0B9_
FN:251,_RNCNvMs0_NtCse561JCZuupE_2vx15package_managerNtB7_14PackageManager7cleanups0_0B9_
FN:245,_RNCNvMs0_NtCse561JCZuupE_2vx15package_managerNtB7_14PackageManager7cleanups_0B9_
FN:298,_RNCNvMs0_NtCse561JCZuupE_2vx15package_managerNtB7_14PackageManager9get_stats0B9_
FN:304,_RNCNvMs0_NtCse561JCZuupE_2vx15package_managerNtB7_14PackageManager9get_statss_0B9_
FN:81,_RNvMs0_NtCse561JCZuupE_2vx15package_managerNtB5_14PackageManager10get_vx_dir
FN:280,_RNvMs0_NtCse561JCZuupE_2vx15package_managerNtB5_14PackageManager13check_updates
FN:121,_RNvMs0_NtCse561JCZuupE_2vx15package_managerNtB5_14PackageManager13list_packages
FN:126,_RNvMs0_NtCse561JCZuupE_2vx15package_managerNtB5_14PackageManager13list_versions
FN:88,_RNvMs0_NtCse561JCZuupE_2vx15package_managerNtB5_14PackageManager13save_registry
FN:172,_RNvMs0_NtCse561JCZuupE_2vx15package_managerNtB5_14PackageManager14remove_version
FN:145,_RNvMs0_NtCse561JCZuupE_2vx15package_managerNtB5_14PackageManager14switch_version
FN:275,_RNvMs0_NtCse561JCZuupE_2vx15package_managerNtB5_14PackageManager15get_package_dir
FN:95,_RNvMs0_NtCse561JCZuupE_2vx15package_managerNtB5_14PackageManager15install_package
FN:316,_RNvMs0_NtCse561JCZuupE_2vx15package_managerNtB5_14PackageManager16get_version_path
FN:135,_RNvMs0_NtCse561JCZuupE_2vx15package_managerNtB5_14PackageManager18get_active_version
FN:330,_RNvMs0_NtCse561JCZuupE_2vx15package_managerNtB5_14PackageManager20list_installed_tools
FN:57,_RNvMs0_NtCse561JCZuupE_2vx15package_managerNtB5_14PackageManager3new
FN:223,_RNvMs0_NtCse561JCZuupE_2vx15package_managerNtB5_14PackageManager7cleanup
FN:296,_RNvMs0_NtCse561JCZuupE_2vx15package_managerNtB5_14PackageManager9get_stats
FN:344,_RNvMs1_NtCse561JCZuupE_2vx15package_managerNtB5_12PackageStats11format_size
FN:19,_RNvXNtCse561JCZuupE_2vx15package_managerNtB2_7PackageNtNtCsaDtq73Zt8sT_4core3fmt7Display3fmt
FN:41,_RNvXs_NtCse561JCZuupE_2vx15package_managerNtB4_15PackageRegistryNtNtCsaDtq73Zt8sT_4core7default7Default7default
FNDA:0,_RNCNvMs0_NtCs8vv7mWF5ug8_2vx15package_managerNtB7_14PackageManager9get_stats0B9_
FNDA:0,_RNCNvMs0_NtCs8vv7mWF5ug8_2vx15package_managerNtB7_14PackageManager7cleanups_0B9_
FNDA:0,_RNCNvMs0_NtCs8vv7mWF5ug8_2vx15package_managerNtB7_14PackageManager7cleanup0B9_
FNDA:0,_RNCNvMs0_NtCs8vv7mWF5ug8_2vx15package_managerNtB7_14PackageManager9get_statss_0B9_
FNDA:0,_RNCNvMs0_NtCs8vv7mWF5ug8_2vx15package_managerNtB7_14PackageManager10get_vx_dir0B9_
FNDA:0,_RNCNvMs0_NtCs8vv7mWF5ug8_2vx15package_managerNtB7_14PackageManager13list_versions0B9_
FNDA:0,_RNCNvMs0_NtCs8vv7mWF5ug8_2vx15package_managerNtB7_14PackageManager14remove_version0B9_
FNDA:0,_RNCNvMs0_NtCs8vv7mWF5ug8_2vx15package_managerNtB7_14PackageManager14remove_versions0_0B9_
FNDA:0,_RNCNvMs0_NtCs8vv7mWF5ug8_2vx15package_managerNtB7_14PackageManager14remove_versions_0B9_
FNDA:0,_RNCNvMs0_NtCs8vv7mWF5ug8_2vx15package_managerNtB7_14PackageManager14switch_version0B9_
FNDA:0,_RNCNvMs0_NtCs8vv7mWF5ug8_2vx15package_managerNtB7_14PackageManager14switch_versions0_0B9_
FNDA:0,_RNCNvMs0_NtCs8vv7mWF5ug8_2vx15package_managerNtB7_14PackageManager14switch_versions_0B9_
FNDA:0,_RNCNvMs0_NtCs8vv7mWF5ug8_2vx15package_managerNtB7_14PackageManager16get_version_path0B9_
FNDA:0,_RNCNvMs0_NtCs8vv7mWF5ug8_2vx15package_managerNtB7_14PackageManager18get_active_version0B9_
FNDA:0,_RNCNvMs0_NtCs8vv7mWF5ug8_2vx15package_managerNtB7_14PackageManager7cleanups0_0B9_
FNDA:0,_RNvMs0_NtCs8vv7mWF5ug8_2vx15package_managerNtB5_14PackageManager10get_vx_dir
FNDA:0,_RNvMs0_NtCs8vv7mWF5ug8_2vx15package_managerNtB5_14PackageManager13check_updates
FNDA:0,_RNvMs0_NtCs8vv7mWF5ug8_2vx15package_managerNtB5_14PackageManager13list_packages
FNDA:0,_RNvMs0_NtCs8vv7mWF5ug8_2vx15package_managerNtB5_14PackageManager13list_versions
FNDA:0,_RNvMs0_NtCs8vv7mWF5ug8_2vx15package_managerNtB5_14PackageManager13save_registry
FNDA:0,_RNvMs0_NtCs8vv7mWF5ug8_2vx15package_managerNtB5_14PackageManager14remove_version
FNDA:0,_RNvMs0_NtCs8vv7mWF5ug8_2vx15package_managerNtB5_14PackageManager14switch_version
FNDA:0,_RNvMs0_NtCs8vv7mWF5ug8_2vx15package_managerNtB5_14PackageManager15get_package_dir
FNDA:0,_RNvMs0_NtCs8vv7mWF5ug8_2vx15package_managerNtB5_14PackageManager15install_package
FNDA:0,_RNvMs0_NtCs8vv7mWF5ug8_2vx15package_managerNtB5_14PackageManager16get_version_path
FNDA:0,_RNvMs0_NtCs8vv7mWF5ug8_2vx15package_managerNtB5_14PackageManager18get_active_version
FNDA:0,_RNvMs0_NtCs8vv7mWF5ug8_2vx15package_managerNtB5_14PackageManager20list_installed_tools
FNDA:0,_RNvMs0_NtCs8vv7mWF5ug8_2vx15package_managerNtB5_14PackageManager3new
FNDA:0,_RNvMs0_NtCs8vv7mWF5ug8_2vx15package_managerNtB5_14PackageManager7cleanup
FNDA:0,_RNvMs0_NtCs8vv7mWF5ug8_2vx15package_managerNtB5_14PackageManager9get_stats
FNDA:0,_RNvMs1_NtCs8vv7mWF5ug8_2vx15package_managerNtB5_12PackageStats11format_size
FNDA:0,_RNvXNtCs8vv7mWF5ug8_2vx15package_managerNtB2_7PackageNtNtCsaDtq73Zt8sT_4core3fmt7Display3fmt
FNDA:0,_RNvXs_NtCs8vv7mWF5ug8_2vx15package_managerNtB4_15PackageRegistryNtNtCsaDtq73Zt8sT_4core7default7Default7default
FNDA:0,_RNCNvMs0_NtCse561JCZuupE_2vx15package_managerNtB7_14PackageManager10get_vx_dir0B9_
FNDA:0,_RNCNvMs0_NtCse561JCZuupE_2vx15package_managerNtB7_14PackageManager13check_updates0B9_
FNDA:0,_RNCNvMs0_NtCse561JCZuupE_2vx15package_managerNtB7_14PackageManager13list_versions0B9_
FNDA:0,_RNCNvMs0_NtCse561JCZuupE_2vx15package_managerNtB7_14PackageManager14remove_version0B9_
FNDA:0,_RNCNvMs0_NtCse561JCZuupE_2vx15package_managerNtB7_14PackageManager14remove_versions0_0B9_
FNDA:0,_RNCNvMs0_NtCse561JCZuupE_2vx15package_managerNtB7_14PackageManager14remove_versions_0B9_
FNDA:0,_RNCNvMs0_NtCse561JCZuupE_2vx15package_managerNtB7_14PackageManager14switch_version0B9_
FNDA:0,_RNCNvMs0_NtCse561JCZuupE_2vx15package_managerNtB7_14PackageManager14switch_versions0_0B9_
FNDA:0,_RNCNvMs0_NtCse561JCZuupE_2vx15package_managerNtB7_14PackageManager14switch_versions_0B9_
FNDA:0,_RNCNvMs0_NtCse561JCZuupE_2vx15package_managerNtB7_14PackageManager16get_version_path0B9_
FNDA:0,_RNCNvMs0_NtCse561JCZuupE_2vx15package_managerNtB7_14PackageManager18get_active_version0B9_
FNDA:0,_RNCNvMs0_NtCse561JCZuupE_2vx15package_managerNtB7_14PackageManager7cleanup0B9_
FNDA:0,_RNCNvMs0_NtCse561JCZuupE_2vx15package_managerNtB7_14PackageManager7cleanups0_0B9_
FNDA:0,_RNCNvMs0_NtCse561JCZuupE_2vx15package_managerNtB7_14PackageManager7cleanups_0B9_
FNDA:0,_RNCNvMs0_NtCse561JCZuupE_2vx15package_managerNtB7_14PackageManager9get_stats0B9_
FNDA:0,_RNCNvMs0_NtCse561JCZuupE_2vx15package_managerNtB7_14PackageManager9get_statss_0B9_
FNDA:0,_RNvMs0_NtCse561JCZuupE_2vx15package_managerNtB5_14PackageManager10get_vx_dir
FNDA:0,_RNvMs0_NtCse561JCZuupE_2vx15package_managerNtB5_14PackageManager13check_updates
FNDA:0,_RNvMs0_NtCse561JCZuupE_2vx15package_managerNtB5_14PackageManager13list_packages
FNDA:0,_RNvMs0_NtCse561JCZuupE_2vx15package_managerNtB5_14PackageManager13list_versions
FNDA:0,_RNvMs0_NtCse561JCZuupE_2vx15package_managerNtB5_14PackageManager13save_registry
FNDA:0,_RNvMs0_NtCse561JCZuupE_2vx15package_managerNtB5_14PackageManager14remove_version
FNDA:0,_RNvMs0_NtCse561JCZuupE_2vx15package_managerNtB5_14PackageManager14switch_version
FNDA:0,_RNvMs0_NtCse561JCZuupE_2vx15package_managerNtB5_14PackageManager15get_package_dir
FNDA:0,_RNvMs0_NtCse561JCZuupE_2vx15package_managerNtB5_14PackageManager15install_package
FNDA:0,_RNvMs0_NtCse561JCZuupE_2vx15package_managerNtB5_14PackageManager16get_version_path
FNDA:0,_RNvMs0_NtCse561JCZuupE_2vx15package_managerNtB5_14PackageManager18get_active_version
FNDA:0,_RNvMs0_NtCse561JCZuupE_2vx15package_managerNtB5_14PackageManager20list_installed_tools
FNDA:0,_RNvMs0_NtCse561JCZuupE_2vx15package_managerNtB5_14PackageManager3new
FNDA:0,_RNvMs0_NtCse561JCZuupE_2vx15package_managerNtB5_14PackageManager7cleanup
FNDA:0,_RNvMs0_NtCse561JCZuupE_2vx15package_managerNtB5_14PackageManager9get_stats
FNDA:0,_RNvMs1_NtCse561JCZuupE_2vx15package_managerNtB5_12PackageStats11format_size
FNDA:0,_RNvXNtCse561JCZuupE_2vx15package_managerNtB2_7PackageNtNtCsaDtq73Zt8sT_4core3fmt7Display3fmt
FNDA:0,_RNvXs_NtCse561JCZuupE_2vx15package_managerNtB4_15PackageRegistryNtNtCsaDtq73Zt8sT_4core7default7Default7default
FNF:34
FNH:0
DA:19,0
DA:20,0
DA:21,0
DA:41,0
DA:42,0
DA:43,0
DA:44,0
DA:45,0
DA:46,0
DA:47,0
DA:57,0
DA:58,0
DA:59,0
DA:60,0
DA:61,0
DA:62,0
DA:63,0
DA:66,0
DA:67,0
DA:68,0
DA:70,0
DA:73,0
DA:74,0
DA:75,0
DA:76,0
DA:77,0
DA:78,0
DA:81,0
DA:82,0
DA:83,0
DA:84,0
DA:85,0
DA:88,0
DA:89,0
DA:90,0
DA:91,0
DA:92,0
DA:95,0
DA:96,0
DA:97,0
DA:98,0
DA:99,0
DA:100,0
DA:101,0
DA:102,0
DA:103,0
DA:104,0
DA:105,0
DA:106,0
DA:107,0
DA:108,0
DA:109,0
DA:110,0
DA:111,0
DA:113,0
DA:114,0
DA:116,0
DA:117,0
DA:118,0
DA:121,0
DA:122,0
DA:123,0
DA:126,0
DA:127,0
DA:128,0
DA:129,0
DA:130,0
DA:131,0
DA:132,0
DA:135,0
DA:136,0
DA:137,0
DA:138,0
DA:139,0
DA:140,0
DA:141,0
DA:142,0
DA:145,0
DA:147,0
DA:148,0
DA:149,0
DA:150,0
DA:151,0
DA:153,0
DA:154,0
DA:155,0
DA:156,0
DA:159,0
DA:160,0
DA:161,0
DA:162,0
DA:163,0
DA:165,0
DA:166,0
DA:167,0
DA:168,0
DA:169,0
DA:172,0
DA:173,0
DA:174,0
DA:175,0
DA:176,0
DA:177,0
DA:179,0
DA:180,0
DA:181,0
DA:182,0
DA:184,0
DA:185,0
DA:186,0
DA:187,0
DA:188,0
DA:189,0
DA:190,0
DA:193,0
DA:196,0
DA:197,0
DA:198,0
DA:199,0
DA:200,0
DA:201,0
DA:202,0
DA:203,0
DA:204,0
DA:205,0
DA:206,0
DA:207,0
DA:208,0
DA:211,0
DA:212,0
DA:213,0
DA:215,0
DA:216,0
DA:218,0
DA:219,0
DA:220,0
DA:223,0
DA:224,0
DA:227,0
DA:228,0
DA:229,0
DA:230,0
DA:231,0
DA:232,0
DA:233,0
DA:234,0
DA:235,0
DA:237,0
DA:239,0
DA:240,0
DA:243,0
DA:244,0
DA:245,0
DA:246,0
DA:247,0
DA:248,0
DA:249,0
DA:250,0
DA:251,0
DA:252,0
DA:253,0
DA:254,0
DA:255,0
DA:256,0
DA:259,0
DA:260,0
DA:261,0
DA:263,0
DA:264,0
DA:265,0
DA:266,0
DA:267,0
DA:268,0
DA:269,0
DA:271,0
DA:272,0
DA:275,0
DA:276,0
DA:277,0
DA:280,0
DA:281,0
DA:283,0
DA:284,0
DA:285,0
DA:286,0
DA:287,0
DA:288,0
DA:289,0
DA:292,0
DA:293,0
DA:296,0
DA:297,0
DA:298,0
DA:299,0
DA:300,0
DA:301,0
DA:302,0
DA:303,0
DA:304,0
DA:305,0
DA:306,0
DA:307,0
DA:308,0
DA:309,0
DA:310,0
DA:311,0
DA:312,0
DA:313,0
DA:316,0
DA:317,0
DA:318,0
DA:319,0
DA:320,0
DA:321,0
DA:322,0
DA:323,0
DA:324,0
DA:325,0
DA:326,0
DA:327,0
DA:330,0
DA:331,0
DA:332,0
DA:344,0
DA:346,0
DA:347,0
DA:349,0
DA:350,0
DA:351,0
DA:352,0
DA:354,0
DA:355,0
BRF:0
BRH:0
LF:249
LH:0
end_of_record
SF:C:\github\mcpx\src\package_managers_impl.rs
FN:153,_RNCNCNvXs_NtCs8vv7mWF5ug8_2vx21package_managers_implNtB8_17NpmPackageManagerNtNtBa_17package_ecosystem23UniversalPackageManager15search_packagess5_0s_0Ba_
FN:152,_RNCNCNvXs_NtCs8vv7mWF5ug8_2vx21package_managers_implNtB8_17NpmPackageManagerNtNtBa_17package_ecosystem23UniversalPackageManager15search_packagess5_00Ba_
FN:260,_RNCNvXs1_NtCs8vv7mWF5ug8_2vx21package_managers_implNtB7_22HomebrewPackageManagerNtNtB9_17package_ecosystem23UniversalPackageManager13list_packages0B9_
FN:264,_RNCNvXs1_NtCs8vv7mWF5ug8_2vx21package_managers_implNtB7_22HomebrewPackageManagerNtNtB9_17package_ecosystem23UniversalPackageManager13list_packagess0_0B9_
FN:265,_RNCNvXs1_NtCs8vv7mWF5ug8_2vx21package_managers_implNtB7_22HomebrewPackageManagerNtNtB9_17package_ecosystem23UniversalPackageManager13list_packagess1_0B9_
FN:266,_RNCNvXs1_NtCs8vv7mWF5ug8_2vx21package_managers_implNtB7_22HomebrewPackageManagerNtNtB9_17package_ecosystem23UniversalPackageManager13list_packagess2_0B9_
FN:273,_RNCNvXs1_NtCs8vv7mWF5ug8_2vx21package_managers_implNtB7_22HomebrewPackageManagerNtNtB9_17package_ecosystem23UniversalPackageManager13list_packagess3_0B9_
FN:274,_RNCNvXs1_NtCs8vv7mWF5ug8_2vx21package_managers_implNtB7_22HomebrewPackageManagerNtNtB9_17package_ecosystem23UniversalPackageManager13list_packagess4_0B9_
FN:277,_RNCNvXs1_NtCs8vv7mWF5ug8_2vx21package_managers_implNtB7_22HomebrewPackageManagerNtNtB9_17package_ecosystem23UniversalPackageManager13list_packagess5_0B9_
FN:278,_RNCNvXs1_NtCs8vv7mWF5ug8_2vx21package_managers_implNtB7_22HomebrewPackageManagerNtNtB9_17package_ecosystem23UniversalPackageManager13list_packagess6_0B9_
FN:263,_RNCNvXs1_NtCs8vv7mWF5ug8_2vx21package_managers_implNtB7_22HomebrewPackageManagerNtNtB9_17package_ecosystem23UniversalPackageManager13list_packagess_0B9_
FN:307,_RNCNvXs1_NtCs8vv7mWF5ug8_2vx21package_managers_implNtB7_22HomebrewPackageManagerNtNtB9_17package_ecosystem23UniversalPackageManager15search_packages0B9_
FN:315,_RNCNvXs1_NtCs8vv7mWF5ug8_2vx21package_managers_implNtB7_22HomebrewPackageManagerNtNtB9_17package_ecosystem23UniversalPackageManager15search_packagess0_0B9_
FN:316,_RNCNvXs1_NtCs8vv7mWF5ug8_2vx21package_managers_implNtB7_22HomebrewPackageManagerNtNtB9_17package_ecosystem23UniversalPackageManager15search_packagess1_0B9_
FN:319,_RNCNvXs1_NtCs8vv7mWF5ug8_2vx21package_managers_implNtB7_22HomebrewPackageManagerNtNtB9_17package_ecosystem23UniversalPackageManager15search_packagess2_0B9_
FN:320,_RNCNvXs1_NtCs8vv7mWF5ug8_2vx21package_managers_implNtB7_22HomebrewPackageManagerNtNtB9_17package_ecosystem23UniversalPackageManager15search_packagess3_0B9_
FN:309,_RNCNvXs1_NtCs8vv7mWF5ug8_2vx21package_managers_implNtB7_22HomebrewPackageManagerNtNtB9_17package_ecosystem23UniversalPackageManager15search_packagess_0B9_
FN:87,_RNCNvXs_NtCs8vv7mWF5ug8_2vx21package_managers_implNtB6_17NpmPackageManagerNtNtB8_17package_ecosystem23UniversalPackageManager13list_packages0B8_
FN:95,_RNCNvXs_NtCs8vv7mWF5ug8_2vx21package_managers_implNtB6_17NpmPackageManagerNtNtB8_17package_ecosystem23UniversalPackageManager13list_packagess0_0B8_
FN:96,_RNCNvXs_NtCs8vv7mWF5ug8_2vx21package_managers_implNtB6_17NpmPackageManagerNtNtB8_17package_ecosystem23UniversalPackageManager13list_packagess1_0B8_
FN:99,_RNCNvXs_NtCs8vv7mWF5ug8_2vx21package_managers_implNtB6_17NpmPackageManagerNtNtB8_17package_ecosystem23UniversalPackageManager13list_packagess2_0B8_
FN:100,_RNCNvXs_NtCs8vv7mWF5ug8_2vx21package_managers_implNtB6_17NpmPackageManagerNtNtB8_17package_ecosystem23UniversalPackageManager13list_packagess3_0B8_
FN:89,_RNCNvXs_NtCs8vv7mWF5ug8_2vx21package_managers_implNtB6_17NpmPackageManagerNtNtB8_17package_ecosystem23UniversalPackageManager13list_packagess_0B8_
FN:131,_RNCNvXs_NtCs8vv7mWF5ug8_2vx21package_managers_implNtB6_17NpmPackageManagerNtNtB8_17package_ecosystem23UniversalPackageManager15search_packages0B8_
FN:139,_RNCNvXs_NtCs8vv7mWF5ug8_2vx21package_managers_implNtB6_17NpmPackageManagerNtNtB8_17package_ecosystem23UniversalPackageManager15search_packagess0_0B8_
FN:140,_RNCNvXs_NtCs8vv7mWF5ug8_2vx21package_managers_implNtB6_17NpmPackageManagerNtNtB8_17package_ecosystem23UniversalPackageManager15search_packagess1_0B8_
FN:143,_RNCNvXs_NtCs8vv7mWF5ug8_2vx21package_managers_implNtB6_17NpmPackageManagerNtNtB8_17package_ecosystem23UniversalPackageManager15search_packagess2_0B8_
FN:144,_RNCNvXs_NtCs8vv7mWF5ug8_2vx21package_managers_implNtB6_17NpmPackageManagerNtNtB8_17package_ecosystem23UniversalPackageManager15search_packagess3_0B8_
FN:149,_RNCNvXs_NtCs8vv7mWF5ug8_2vx21package_managers_implNtB6_17NpmPackageManagerNtNtB8_17package_ecosystem23UniversalPackageManager15search_packagess4_0B8_
FN:150,_RNCNvXs_NtCs8vv7mWF5ug8_2vx21package_managers_implNtB6_17NpmPackageManagerNtNtB8_17package_ecosystem23UniversalPackageManager15search_packagess5_0B8_
FN:132,_RNCNvXs_NtCs8vv7mWF5ug8_2vx21package_managers_implNtB6_17NpmPackageManagerNtNtB8_17package_ecosystem23UniversalPackageManager15search_packagess_0B8_
FN:15,_RNvMNtCs8vv7mWF5ug8_2vx21package_managers_implNtB2_17NpmPackageManager3new
FN:198,_RNvMs0_NtCs8vv7mWF5ug8_2vx21package_managers_implNtB5_22HomebrewPackageManager3new
FN:374,_RNvMs2_NtCs8vv7mWF5ug8_2vx21package_managers_implNtB5_17RezPackageManager3new
FN:358,_RNvXs1_NtCs8vv7mWF5ug8_2vx21package_managers_implNtB5_22HomebrewPackageManagerNtNtB7_17package_ecosystem23UniversalPackageManager10get_config
FN:354,_RNvXs1_NtCs8vv7mWF5ug8_2vx21package_managers_implNtB5_22HomebrewPackageManagerNtNtB7_17package_ecosystem23UniversalPackageManager12is_available
FN:246,_RNvXs1_NtCs8vv7mWF5ug8_2vx21package_managers_implNtB5_22HomebrewPackageManagerNtNtB7_17package_ecosystem23UniversalPackageManager13list_packages
FN:236,_RNvXs1_NtCs8vv7mWF5ug8_2vx21package_managers_implNtB5_22HomebrewPackageManagerNtNtB7_17package_ecosystem23UniversalPackageManager15remove_packages
FN:293,_RNvXs1_NtCs8vv7mWF5ug8_2vx21package_managers_implNtB5_22HomebrewPackageManagerNtNtB7_17package_ecosystem23UniversalPackageManager15search_packages
FN:335,_RNvXs1_NtCs8vv7mWF5ug8_2vx21package_managers_implNtB5_22HomebrewPackageManagerNtNtB7_17package_ecosystem23UniversalPackageManager15update_packages
FN:223,_RNvXs1_NtCs8vv7mWF5ug8_2vx21package_managers_implNtB5_22HomebrewPackageManagerNtNtB7_17package_ecosystem23UniversalPackageManager16install_packages
FN:362,_RNvXs1_NtCs8vv7mWF5ug8_2vx21package_managers_implNtB5_22HomebrewPackageManagerNtNtB7_17package_ecosystem23UniversalPackageManager24is_preferred_for_project
FN:215,_RNvXs1_NtCs8vv7mWF5ug8_2vx21package_managers_implNtB5_22HomebrewPackageManagerNtNtB7_17package_ecosystem23UniversalPackageManager4name
FN:219,_RNvXs1_NtCs8vv7mWF5ug8_2vx21package_managers_implNtB5_22HomebrewPackageManagerNtNtB7_17package_ecosystem23UniversalPackageManager9ecosystem
FN:459,_RNvXs3_NtCs8vv7mWF5ug8_2vx21package_managers_implNtB5_17RezPackageManagerNtNtB7_17package_ecosystem23UniversalPackageManager10get_config
FN:455,_RNvXs3_NtCs8vv7mWF5ug8_2vx21package_managers_implNtB5_17RezPackageManagerNtNtB7_17package_ecosystem23UniversalPackageManager12is_available
FN:422,_RNvXs3_NtCs8vv7mWF5ug8_2vx21package_managers_implNtB5_17RezPackageManagerNtNtB7_17package_ecosystem23UniversalPackageManager13list_packages
FN:416,_RNvXs3_NtCs8vv7mWF5ug8_2vx21package_managers_implNtB5_17RezPackageManagerNtNtB7_17package_ecosystem23UniversalPackageManager15remove_packages
FN:436,_RNvXs3_NtCs8vv7mWF5ug8_2vx21package_managers_implNtB5_17RezPackageManagerNtNtB7_17package_ecosystem23UniversalPackageManager15search_packages
FN:450,_RNvXs3_NtCs8vv7mWF5ug8_2vx21package_managers_implNtB5_17RezPackageManagerNtNtB7_17package_ecosystem23UniversalPackageManager15update_packages
FN:399,_RNvXs3_NtCs8vv7mWF5ug8_2vx21package_managers_implNtB5_17RezPackageManagerNtNtB7_17package_ecosystem23UniversalPackageManager16install_packages
FN:463,_RNvXs3_NtCs8vv7mWF5ug8_2vx21package_managers_implNtB5_17RezPackageManagerNtNtB7_17package_ecosystem23UniversalPackageManager24is_preferred_for_project
FN:391,_RNvXs3_NtCs8vv7mWF5ug8_2vx21package_managers_implNtB5_17RezPackageManagerNtNtB7_17package_ecosystem23UniversalPackageManager4name
FN:395,_RNvXs3_NtCs8vv7mWF5ug8_2vx21package_managers_implNtB5_17RezPackageManagerNtNtB7_17package_ecosystem23UniversalPackageManager9ecosystem
FN:469,_RNvXs4_NtCs8vv7mWF5ug8_2vx21package_managers_implNtB5_17NpmPackageManagerNtNtCsaDtq73Zt8sT_4core7default7Default7default
FN:475,_RNvXs5_NtCs8vv7mWF5ug8_2vx21package_managers_implNtB5_22HomebrewPackageManagerNtNtCsaDtq73Zt8sT_4core7default7Default7default
FN:481,_RNvXs6_NtCs8vv7mWF5ug8_2vx21package_managers_implNtB5_17RezPackageManagerNtNtCsaDtq73Zt8sT_4core7default7Default7default
FN:183,_RNvXs_NtCs8vv7mWF5ug8_2vx21package_managers_implNtB4_17NpmPackageManagerNtNtB6_17package_ecosystem23UniversalPackageManager10get_config
FN:179,_RNvXs_NtCs8vv7mWF5ug8_2vx21package_managers_implNtB4_17NpmPackageManagerNtNtB6_17package_ecosystem23UniversalPackageManager12is_available
FN:74,_RNvXs_NtCs8vv7mWF5ug8_2vx21package_managers_implNtB4_17NpmPackageManagerNtNtB6_17package_ecosystem23UniversalPackageManager13list_packages
FN:63,_RNvXs_NtCs8vv7mWF5ug8_2vx21package_managers_implNtB4_17NpmPackageManagerNtNtB6_17package_ecosystem23UniversalPackageManager15remove_packages
FN:115,_RNvXs_NtCs8vv7mWF5ug8_2vx21package_managers_implNtB4_17NpmPackageManagerNtNtB6_17package_ecosystem23UniversalPackageManager15search_packages
FN:168,_RNvXs_NtCs8vv7mWF5ug8_2vx21package_managers_implNtB4_17NpmPackageManagerNtNtB6_17package_ecosystem23UniversalPackageManager15update_packages
FN:40,_RNvXs_NtCs8vv7mWF5ug8_2vx21package_managers_implNtB4_17NpmPackageManagerNtNtB6_17package_ecosystem23UniversalPackageManager16install_packages
FN:187,_RNvXs_NtCs8vv7mWF5ug8_2vx21package_managers_implNtB4_17NpmPackageManagerNtNtB6_17package_ecosystem23UniversalPackageManager24is_preferred_for_project
FN:32,_RNvXs_NtCs8vv7mWF5ug8_2vx21package_managers_implNtB4_17NpmPackageManagerNtNtB6_17package_ecosystem23UniversalPackageManager4name
FN:36,_RNvXs_NtCs8vv7mWF5ug8_2vx21package_managers_implNtB4_17NpmPackageManagerNtNtB6_17package_ecosystem23UniversalPackageManager9ecosystem
FN:260,_RNCNvXs1_NtCse561JCZuupE_2vx21package_managers_implNtB7_22HomebrewPackageManagerNtNtB9_17package_ecosystem23UniversalPackageManager13list_packages0B9_
FN:264,_RNCNvXs1_NtCse561JCZuupE_2vx21package_managers_implNtB7_22HomebrewPackageManagerNtNtB9_17package_ecosystem23UniversalPackageManager13list_packagess0_0B9_
FN:265,_RNCNvXs1_NtCse561JCZuupE_2vx21package_managers_implNtB7_22HomebrewPackageManagerNtNtB9_17package_ecosystem23UniversalPackageManager13list_packagess1_0B9_
FN:266,_RNCNvXs1_NtCse561JCZuupE_2vx21package_managers_implNtB7_22HomebrewPackageManagerNtNtB9_17package_ecosystem23UniversalPackageManager13list_packagess2_0B9_
FN:273,_RNCNvXs1_NtCse561JCZuupE_2vx21package_managers_implNtB7_22HomebrewPackageManagerNtNtB9_17package_ecosystem23UniversalPackageManager13list_packagess3_0B9_
FN:274,_RNCNvXs1_NtCse561JCZuupE_2vx21package_managers_implNtB7_22HomebrewPackageManagerNtNtB9_17package_ecosystem23UniversalPackageManager13list_packagess4_0B9_
FN:277,_RNCNvXs1_NtCse561JCZuupE_2vx21package_managers_implNtB7_22HomebrewPackageManagerNtNtB9_17package_ecosystem23UniversalPackageManager13list_packagess5_0B9_
FN:278,_RNCNvXs1_NtCse561JCZuupE_2vx21package_managers_implNtB7_22HomebrewPackageManagerNtNtB9_17package_ecosystem23UniversalPackageManager13list_packagess6_0B9_
FN:263,_RNCNvXs1_NtCse561JCZuupE_2vx21package_managers_implNtB7_22HomebrewPackageManagerNtNtB9_17package_ecosystem23UniversalPackageManager13list_packagess_0B9_
FN:307,_RNCNvXs1_NtCse561JCZuupE_2vx21package_managers_implNtB7_22HomebrewPackageManagerNtNtB9_17package_ecosystem23UniversalPackageManager15search_packages0B9_
FN:315,_RNCNvXs1_NtCse561JCZuupE_2vx21package_managers_implNtB7_22HomebrewPackageManagerNtNtB9_17package_ecosystem23UniversalPackageManager15search_packagess0_0B9_
FN:316,_RNCNvXs1_NtCse561JCZuupE_2vx21package_managers_implNtB7_22HomebrewPackageManagerNtNtB9_17package_ecosystem23UniversalPackageManager15search_packagess1_0B9_
FN:319,_RNCNvXs1_NtCse561JCZuupE_2vx21package_managers_implNtB7_22HomebrewPackageManagerNtNtB9_17package_ecosystem23UniversalPackageManager15search_packagess2_0B9_
FN:320,_RNCNvXs1_NtCse561JCZuupE_2vx21package_managers_implNtB7_22HomebrewPackageManagerNtNtB9_17package_ecosystem23UniversalPackageManager15search_packagess3_0B9_
FN:309,_RNCNvXs1_NtCse561JCZuupE_2vx21package_managers_implNtB7_22HomebrewPackageManagerNtNtB9_17package_ecosystem23UniversalPackageManager15search_packagess_0B9_
FN:198,_RNvMs0_NtCse561JCZuupE_2vx21package_managers_implNtB5_22HomebrewPackageManager3new
FN:358,_RNvXs1_NtCse561JCZuupE_2vx21package_managers_implNtB5_22HomebrewPackageManagerNtNtB7_17package_ecosystem23UniversalPackageManager10get_config
FN:354,_RNvXs1_NtCse561JCZuupE_2vx21package_managers_implNtB5_22HomebrewPackageManagerNtNtB7_17package_ecosystem23UniversalPackageManager12is_available
FN:246,_RNvXs1_NtCse561JCZuupE_2vx21package_managers_implNtB5_22HomebrewPackageManagerNtNtB7_17package_ecosystem23UniversalPackageManager13list_packages
FN:236,_RNvXs1_NtCse561JCZuupE_2vx21package_managers_implNtB5_22HomebrewPackageManagerNtNtB7_17package_ecosystem23UniversalPackageManager15remove_packages
FN:293,_RNvXs1_NtCse561JCZuupE_2vx21package_managers_implNtB5_22HomebrewPackageManagerNtNtB7_17package_ecosystem23UniversalPackageManager15search_packages
FN:335,_RNvXs1_NtCse561JCZuupE_2vx21package_managers_implNtB5_22HomebrewPackageManagerNtNtB7_17package_ecosystem23UniversalPackageManager15update_packages
FN:223,_RNvXs1_NtCse561JCZuupE_2vx21package_managers_implNtB5_22HomebrewPackageManagerNtNtB7_17package_ecosystem23UniversalPackageManager16install_packages
FN:362,_RNvXs1_NtCse561JCZuupE_2vx21package_managers_implNtB5_22HomebrewPackageManagerNtNtB7_17package_ecosystem23UniversalPackageManager24is_preferred_for_project
FN:215,_RNvXs1_NtCse561JCZuupE_2vx21package_managers_implNtB5_22HomebrewPackageManagerNtNtB7_17package_ecosystem23UniversalPackageManager4name
FN:219,_RNvXs1_NtCse561JCZuupE_2vx21package_managers_implNtB5_22HomebrewPackageManagerNtNtB7_17package_ecosystem23UniversalPackageManager9ecosystem
FN:469,_RNvXs4_NtCse561JCZuupE_2vx21package_managers_implNtB5_17NpmPackageManagerNtNtCsaDtq73Zt8sT_4core7default7Default7default
FN:475,_RNvXs5_NtCse561JCZuupE_2vx21package_managers_implNtB5_22HomebrewPackageManagerNtNtCsaDtq73Zt8sT_4core7default7Default7default
FN:481,_RNvXs6_NtCse561JCZuupE_2vx21package_managers_implNtB5_17RezPackageManagerNtNtCsaDtq73Zt8sT_4core7default7Default7default
FN:153,_RNCNCNvXs_NtCse561JCZuupE_2vx21package_managers_implNtB8_17NpmPackageManagerNtNtBa_17package_ecosystem23UniversalPackageManager15search_packagess5_0s_0Ba_
FN:152,_RNCNCNvXs_NtCse561JCZuupE_2vx21package_managers_implNtB8_17NpmPackageManagerNtNtBa_17package_ecosystem23UniversalPackageManager15search_packagess5_00Ba_
FN:87,_RNCNvXs_NtCse561JCZuupE_2vx21package_managers_implNtB6_17NpmPackageManagerNtNtB8_17package_ecosystem23UniversalPackageManager13list_packages0B8_
FN:95,_RNCNvXs_NtCse561JCZuupE_2vx21package_managers_implNtB6_17NpmPackageManagerNtNtB8_17package_ecosystem23UniversalPackageManager13list_packagess0_0B8_
FN:96,_RNCNvXs_NtCse561JCZuupE_2vx21package_managers_implNtB6_17NpmPackageManagerNtNtB8_17package_ecosystem23UniversalPackageManager13list_packagess1_0B8_
FN:99,_RNCNvXs_NtCse561JCZuupE_2vx21package_managers_implNtB6_17NpmPackageManagerNtNtB8_17package_ecosystem23UniversalPackageManager13list_packagess2_0B8_
FN:100,_RNCNvXs_NtCse561JCZuupE_2vx21package_managers_implNtB6_17NpmPackageManagerNtNtB8_17package_ecosystem23UniversalPackageManager13list_packagess3_0B8_
FN:89,_RNCNvXs_NtCse561JCZuupE_2vx21package_managers_implNtB6_17NpmPackageManagerNtNtB8_17package_ecosystem23UniversalPackageManager13list_packagess_0B8_
FN:131,_RNCNvXs_NtCse561JCZuupE_2vx21package_managers_implNtB6_17NpmPackageManagerNtNtB8_17package_ecosystem23UniversalPackageManager15search_packages0B8_
FN:139,_RNCNvXs_NtCse561JCZuupE_2vx21package_managers_implNtB6_17NpmPackageManagerNtNtB8_17package_ecosystem23UniversalPackageManager15search_packagess0_0B8_
FN:140,_RNCNvXs_NtCse561JCZuupE_2vx21package_managers_implNtB6_17NpmPackageManagerNtNtB8_17package_ecosystem23UniversalPackageManager15search_packagess1_0B8_
FN:143,_RNCNvXs_NtCse561JCZuupE_2vx21package_managers_implNtB6_17NpmPackageManagerNtNtB8_17package_ecosystem23UniversalPackageManager15search_packagess2_0B8_
FN:144,_RNCNvXs_NtCse561JCZuupE_2vx21package_managers_implNtB6_17NpmPackageManagerNtNtB8_17package_ecosystem23UniversalPackageManager15search_packagess3_0B8_
FN:149,_RNCNvXs_NtCse561JCZuupE_2vx21package_managers_implNtB6_17NpmPackageManagerNtNtB8_17package_ecosystem23UniversalPackageManager15search_packagess4_0B8_
FN:150,_RNCNvXs_NtCse561JCZuupE_2vx21package_managers_implNtB6_17NpmPackageManagerNtNtB8_17package_ecosystem23UniversalPackageManager15search_packagess5_0B8_
FN:132,_RNCNvXs_NtCse561JCZuupE_2vx21package_managers_implNtB6_17NpmPackageManagerNtNtB8_17package_ecosystem23UniversalPackageManager15search_packagess_0B8_
FN:15,_RNvMNtCse561JCZuupE_2vx21package_managers_implNtB2_17NpmPackageManager3new
FN:374,_RNvMs2_NtCse561JCZuupE_2vx21package_managers_implNtB5_17RezPackageManager3new
FN:459,_RNvXs3_NtCse561JCZuupE_2vx21package_managers_implNtB5_17RezPackageManagerNtNtB7_17package_ecosystem23UniversalPackageManager10get_config
FN:455,_RNvXs3_NtCse561JCZuupE_2vx21package_managers_implNtB5_17RezPackageManagerNtNtB7_17package_ecosystem23UniversalPackageManager12is_available
FN:422,_RNvXs3_NtCse561JCZuupE_2vx21package_managers_implNtB5_17RezPackageManagerNtNtB7_17package_ecosystem23UniversalPackageManager13list_packages
FN:416,_RNvXs3_NtCse561JCZuupE_2vx21package_managers_implNtB5_17RezPackageManagerNtNtB7_17package_ecosystem23UniversalPackageManager15remove_packages
FN:436,_RNvXs3_NtCse561JCZuupE_2vx21package_managers_implNtB5_17RezPackageManagerNtNtB7_17package_ecosystem23UniversalPackageManager15search_packages
FN:450,_RNvXs3_NtCse561JCZuupE_2vx21package_managers_implNtB5_17RezPackageManagerNtNtB7_17package_ecosystem23UniversalPackageManager15update_packages
FN:399,_RNvXs3_NtCse561JCZuupE_2vx21package_managers_implNtB5_17RezPackageManagerNtNtB7_17package_ecosystem23UniversalPackageManager16install_packages
FN:463,_RNvXs3_NtCse561JCZuupE_2vx21package_managers_implNtB5_17RezPackageManagerNtNtB7_17package_ecosystem23UniversalPackageManager24is_preferred_for_project
FN:391,_RNvXs3_NtCse561JCZuupE_2vx21package_managers_implNtB5_17RezPackageManagerNtNtB7_17package_ecosystem23UniversalPackageManager4name
FN:395,_RNvXs3_NtCse561JCZuupE_2vx21package_managers_implNtB5_17RezPackageManagerNtNtB7_17package_ecosystem23UniversalPackageManager9ecosystem
FN:183,_RNvXs_NtCse561JCZuupE_2vx21package_managers_implNtB4_17NpmPackageManagerNtNtB6_17package_ecosystem23UniversalPackageManager10get_config
FN:179,_RNvXs_NtCse561JCZuupE_2vx21package_managers_implNtB4_17NpmPackageManagerNtNtB6_17package_ecosystem23UniversalPackageManager12is_available
FN:74,_RNvXs_NtCse561JCZuupE_2vx21package_managers_implNtB4_17NpmPackageManagerNtNtB6_17package_ecosystem23UniversalPackageManager13list_packages
FN:63,_RNvXs_NtCse561JCZuupE_2vx21package_managers_implNtB4_17NpmPackageManagerNtNtB6_17package_ecosystem23UniversalPackageManager15remove_packages
FN:115,_RNvXs_NtCse561JCZuupE_2vx21package_managers_implNtB4_17NpmPackageManagerNtNtB6_17package_ecosystem23UniversalPackageManager15search_packages
FN:168,_RNvXs_NtCse561JCZuupE_2vx21package_managers_implNtB4_17NpmPackageManagerNtNtB6_17package_ecosystem23UniversalPackageManager15update_packages
FN:40,_RNvXs_NtCse561JCZuupE_2vx21package_managers_implNtB4_17NpmPackageManagerNtNtB6_17package_ecosystem23UniversalPackageManager16install_packages
FN:187,_RNvXs_NtCse561JCZuupE_2vx21package_managers_implNtB4_17NpmPackageManagerNtNtB6_17package_ecosystem23UniversalPackageManager24is_preferred_for_project
FN:32,_RNvXs_NtCse561JCZuupE_2vx21package_managers_implNtB4_17NpmPackageManagerNtNtB6_17package_ecosystem23UniversalPackageManager4name
FN:36,_RNvXs_NtCse561JCZuupE_2vx21package_managers_implNtB4_17NpmPackageManagerNtNtB6_17package_ecosystem23UniversalPackageManager9ecosystem
FNDA:0,_RNCNCNvXs_NtCs8vv7mWF5ug8_2vx21package_managers_implNtB8_17NpmPackageManagerNtNtBa_17package_ecosystem23UniversalPackageManager15search_packagess5_0s_0Ba_
FNDA:0,_RNCNCNvXs_NtCs8vv7mWF5ug8_2vx21package_managers_implNtB8_17NpmPackageManagerNtNtBa_17package_ecosystem23UniversalPackageManager15search_packagess5_00Ba_
FNDA:0,_RNCNvXs1_NtCs8vv7mWF5ug8_2vx21package_managers_implNtB7_22HomebrewPackageManagerNtNtB9_17package_ecosystem23UniversalPackageManager13list_packages0B9_
FNDA:0,_RNCNvXs1_NtCs8vv7mWF5ug8_2vx21package_managers_implNtB7_22HomebrewPackageManagerNtNtB9_17package_ecosystem23UniversalPackageManager13list_packagess0_0B9_
FNDA:0,_RNCNvXs1_NtCs8vv7mWF5ug8_2vx21package_managers_implNtB7_22HomebrewPackageManagerNtNtB9_17package_ecosystem23UniversalPackageManager13list_packagess1_0B9_
FNDA:0,_RNCNvXs1_NtCs8vv7mWF5ug8_2vx21package_managers_implNtB7_22HomebrewPackageManagerNtNtB9_17package_ecosystem23UniversalPackageManager13list_packagess2_0B9_
FNDA:0,_RNCNvXs1_NtCs8vv7mWF5ug8_2vx21package_managers_implNtB7_22HomebrewPackageManagerNtNtB9_17package_ecosystem23UniversalPackageManager13list_packagess3_0B9_
FNDA:0,_RNCNvXs1_NtCs8vv7mWF5ug8_2vx21package_managers_implNtB7_22HomebrewPackageManagerNtNtB9_17package_ecosystem23UniversalPackageManager13list_packagess4_0B9_
FNDA:0,_RNCNvXs1_NtCs8vv7mWF5ug8_2vx21package_managers_implNtB7_22HomebrewPackageManagerNtNtB9_17package_ecosystem23UniversalPackageManager13list_packagess5_0B9_
FNDA:0,_RNCNvXs1_NtCs8vv7mWF5ug8_2vx21package_managers_implNtB7_22HomebrewPackageManagerNtNtB9_17package_ecosystem23UniversalPackageManager13list_packagess6_0B9_
FNDA:0,_RNCNvXs1_NtCs8vv7mWF5ug8_2vx21package_managers_implNtB7_22HomebrewPackageManagerNtNtB9_17package_ecosystem23UniversalPackageManager13list_packagess_0B9_
FNDA:0,_RNCNvXs1_NtCs8vv7mWF5ug8_2vx21package_managers_implNtB7_22HomebrewPackageManagerNtNtB9_17package_ecosystem23UniversalPackageManager15search_packages0B9_
FNDA:0,_RNCNvXs1_NtCs8vv7mWF5ug8_2vx21package_managers_implNtB7_22HomebrewPackageManagerNtNtB9_17package_ecosystem23UniversalPackageManager15search_packagess0_0B9_
FNDA:0,_RNCNvXs1_NtCs8vv7mWF5ug8_2vx21package_managers_implNtB7_22HomebrewPackageManagerNtNtB9_17package_ecosystem23UniversalPackageManager15search_packagess1_0B9_
FNDA:0,_RNCNvXs1_NtCs8vv7mWF5ug8_2vx21package_managers_implNtB7_22HomebrewPackageManagerNtNtB9_17package_ecosystem23UniversalPackageManager15search_packagess2_0B9_
FNDA:0,_RNCNvXs1_NtCs8vv7mWF5ug8_2vx21package_managers_implNtB7_22HomebrewPackageManagerNtNtB9_17package_ecosystem23UniversalPackageManager15search_packagess3_0B9_
FNDA:0,_RNCNvXs1_NtCs8vv7mWF5ug8_2vx21package_managers_implNtB7_22HomebrewPackageManagerNtNtB9_17package_ecosystem23UniversalPackageManager15search_packagess_0B9_
FNDA:0,_RNCNvXs_NtCs8vv7mWF5ug8_2vx21package_managers_implNtB6_17NpmPackageManagerNtNtB8_17package_ecosystem23UniversalPackageManager13list_packages0B8_
FNDA:0,_RNCNvXs_NtCs8vv7mWF5ug8_2vx21package_managers_implNtB6_17NpmPackageManagerNtNtB8_17package_ecosystem23UniversalPackageManager13list_packagess0_0B8_
FNDA:0,_RNCNvXs_NtCs8vv7mWF5ug8_2vx21package_managers_implNtB6_17NpmPackageManagerNtNtB8_17package_ecosystem23UniversalPackageManager13list_packagess1_0B8_
FNDA:0,_RNCNvXs_NtCs8vv7mWF5ug8_2vx21package_managers_implNtB6_17NpmPackageManagerNtNtB8_17package_ecosystem23UniversalPackageManager13list_packagess2_0B8_
FNDA:0,_RNCNvXs_NtCs8vv7mWF5ug8_2vx21package_managers_implNtB6_17NpmPackageManagerNtNtB8_17package_ecosystem23UniversalPackageManager13list_packagess3_0B8_
FNDA:0,_RNCNvXs_NtCs8vv7mWF5ug8_2vx21package_managers_implNtB6_17NpmPackageManagerNtNtB8_17package_ecosystem23UniversalPackageManager13list_packagess_0B8_
FNDA:0,_RNCNvXs_NtCs8vv7mWF5ug8_2vx21package_managers_implNtB6_17NpmPackageManagerNtNtB8_17package_ecosystem23UniversalPackageManager15search_packages0B8_
FNDA:0,_RNCNvXs_NtCs8vv7mWF5ug8_2vx21package_managers_implNtB6_17NpmPackageManagerNtNtB8_17package_ecosystem23UniversalPackageManager15search_packagess0_0B8_
FNDA:0,_RNCNvXs_NtCs8vv7mWF5ug8_2vx21package_managers_implNtB6_17NpmPackageManagerNtNtB8_17package_ecosystem23UniversalPackageManager15search_packagess1_0B8_
FNDA:0,_RNCNvXs_NtCs8vv7mWF5ug8_2vx21package_managers_implNtB6_17NpmPackageManagerNtNtB8_17package_ecosystem23UniversalPackageManager15search_packagess2_0B8_
FNDA:0,_RNCNvXs_NtCs8vv7mWF5ug8_2vx21package_managers_implNtB6_17NpmPackageManagerNtNtB8_17package_ecosystem23UniversalPackageManager15search_packagess3_0B8_
FNDA:0,_RNCNvXs_NtCs8vv7mWF5ug8_2vx21package_managers_implNtB6_17NpmPackageManagerNtNtB8_17package_ecosystem23UniversalPackageManager15search_packagess4_0B8_
FNDA:0,_RNCNvXs_NtCs8vv7mWF5ug8_2vx21package_managers_implNtB6_17NpmPackageManagerNtNtB8_17package_ecosystem23UniversalPackageManager15search_packagess5_0B8_
FNDA:0,_RNCNvXs_NtCs8vv7mWF5ug8_2vx21package_managers_implNtB6_17NpmPackageManagerNtNtB8_17package_ecosystem23UniversalPackageManager15search_packagess_0B8_
FNDA:0,_RNvMNtCs8vv7mWF5ug8_2vx21package_managers_implNtB2_17NpmPackageManager3new
FNDA:0,_RNvMs0_NtCs8vv7mWF5ug8_2vx21package_managers_implNtB5_22HomebrewPackageManager3new
FNDA:0,_RNvMs2_NtCs8vv7mWF5ug8_2vx21package_managers_implNtB5_17RezPackageManager3new
FNDA:0,_RNvXs1_NtCs8vv7mWF5ug8_2vx21package_managers_implNtB5_22HomebrewPackageManagerNtNtB7_17package_ecosystem23UniversalPackageManager10get_config
FNDA:0,_RNvXs1_NtCs8vv7mWF5ug8_2vx21package_managers_implNtB5_22HomebrewPackageManagerNtNtB7_17package_ecosystem23UniversalPackageManager12is_available
FNDA:0,_RNvXs1_NtCs8vv7mWF5ug8_2vx21package_managers_implNtB5_22HomebrewPackageManagerNtNtB7_17package_ecosystem23UniversalPackageManager13list_packages
FNDA:0,_RNvXs1_NtCs8vv7mWF5ug8_2vx21package_managers_implNtB5_22HomebrewPackageManagerNtNtB7_17package_ecosystem23UniversalPackageManager15remove_packages
FNDA:0,_RNvXs1_NtCs8vv7mWF5ug8_2vx21package_managers_implNtB5_22HomebrewPackageManagerNtNtB7_17package_ecosystem23UniversalPackageManager15search_packages
FNDA:0,_RNvXs1_NtCs8vv7mWF5ug8_2vx21package_managers_implNtB5_22HomebrewPackageManagerNtNtB7_17package_ecosystem23UniversalPackageManager15update_packages
FNDA:0,_RNvXs1_NtCs8vv7mWF5ug8_2vx21package_managers_implNtB5_22HomebrewPackageManagerNtNtB7_17package_ecosystem23UniversalPackageManager16install_packages
FNDA:0,_RNvXs1_NtCs8vv7mWF5ug8_2vx21package_managers_implNtB5_22HomebrewPackageManagerNtNtB7_17package_ecosystem23UniversalPackageManager24is_preferred_for_project
FNDA:0,_RNvXs1_NtCs8vv7mWF5ug8_2vx21package_managers_implNtB5_22HomebrewPackageManagerNtNtB7_17package_ecosystem23UniversalPackageManager4name
FNDA:0,_RNvXs1_NtCs8vv7mWF5ug8_2vx21package_managers_implNtB5_22HomebrewPackageManagerNtNtB7_17package_ecosystem23UniversalPackageManager9ecosystem
FNDA:0,_RNvXs3_NtCs8vv7mWF5ug8_2vx21package_managers_implNtB5_17RezPackageManagerNtNtB7_17package_ecosystem23UniversalPackageManager10get_config
FNDA:0,_RNvXs3_NtCs8vv7mWF5ug8_2vx21package_managers_implNtB5_17RezPackageManagerNtNtB7_17package_ecosystem23UniversalPackageManager12is_available
FNDA:0,_RNvXs3_NtCs8vv7mWF5ug8_2vx21package_managers_implNtB5_17RezPackageManagerNtNtB7_17package_ecosystem23UniversalPackageManager13list_packages
FNDA:0,_RNvXs3_NtCs8vv7mWF5ug8_2vx21package_managers_implNtB5_17RezPackageManagerNtNtB7_17package_ecosystem23UniversalPackageManager15remove_packages
FNDA:0,_RNvXs3_NtCs8vv7mWF5ug8_2vx21package_managers_implNtB5_17RezPackageManagerNtNtB7_17package_ecosystem23UniversalPackageManager15search_packages
FNDA:0,_RNvXs3_NtCs8vv7mWF5ug8_2vx21package_managers_implNtB5_17RezPackageManagerNtNtB7_17package_ecosystem23UniversalPackageManager15update_packages
FNDA:0,_RNvXs3_NtCs8vv7mWF5ug8_2vx21package_managers_implNtB5_17RezPackageManagerNtNtB7_17package_ecosystem23UniversalPackageManager16install_packages
FNDA:0,_RNvXs3_NtCs8vv7mWF5ug8_2vx21package_managers_implNtB5_17RezPackageManagerNtNtB7_17package_ecosystem23UniversalPackageManager24is_preferred_for_project
FNDA:0,_RNvXs3_NtCs8vv7mWF5ug8_2vx21package_managers_implNtB5_17RezPackageManagerNtNtB7_17package_ecosystem23UniversalPackageManager4name
FNDA:0,_RNvXs3_NtCs8vv7mWF5ug8_2vx21package_managers_implNtB5_17RezPackageManagerNtNtB7_17package_ecosystem23UniversalPackageManager9ecosystem
FNDA:0,_RNvXs4_NtCs8vv7mWF5ug8_2vx21package_managers_implNtB5_17NpmPackageManagerNtNtCsaDtq73Zt8sT_4core7default7Default7default
FNDA:0,_RNvXs5_NtCs8vv7mWF5ug8_2vx21package_managers_implNtB5_22HomebrewPackageManagerNtNtCsaDtq73Zt8sT_4core7default7Default7default
FNDA:0,_RNvXs6_NtCs8vv7mWF5ug8_2vx21package_managers_implNtB5_17RezPackageManagerNtNtCsaDtq73Zt8sT_4core7default7Default7default
FNDA:0,_RNvXs_NtCs8vv7mWF5ug8_2vx21package_managers_implNtB4_17NpmPackageManagerNtNtB6_17package_ecosystem23UniversalPackageManager10get_config
FNDA:0,_RNvXs_NtCs8vv7mWF5ug8_2vx21package_managers_implNtB4_17NpmPackageManagerNtNtB6_17package_ecosystem23UniversalPackageManager12is_available
FNDA:0,_RNvXs_NtCs8vv7mWF5ug8_2vx21package_managers_implNtB4_17NpmPackageManagerNtNtB6_17package_ecosystem23UniversalPackageManager13list_packages
FNDA:0,_RNvXs_NtCs8vv7mWF5ug8_2vx21package_managers_implNtB4_17NpmPackageManagerNtNtB6_17package_ecosystem23UniversalPackageManager15remove_packages
FNDA:0,_RNvXs_NtCs8vv7mWF5ug8_2vx21package_managers_implNtB4_17NpmPackageManagerNtNtB6_17package_ecosystem23UniversalPackageManager15search_packages
FNDA:0,_RNvXs_NtCs8vv7mWF5ug8_2vx21package_managers_implNtB4_17NpmPackageManagerNtNtB6_17package_ecosystem23UniversalPackageManager15update_packages
FNDA:0,_RNvXs_NtCs8vv7mWF5ug8_2vx21package_managers_implNtB4_17NpmPackageManagerNtNtB6_17package_ecosystem23UniversalPackageManager16install_packages
FNDA:0,_RNvXs_NtCs8vv7mWF5ug8_2vx21package_managers_implNtB4_17NpmPackageManagerNtNtB6_17package_ecosystem23UniversalPackageManager24is_preferred_for_project
FNDA:0,_RNvXs_NtCs8vv7mWF5ug8_2vx21package_managers_implNtB4_17NpmPackageManagerNtNtB6_17package_ecosystem23UniversalPackageManager4name
FNDA:0,_RNvXs_NtCs8vv7mWF5ug8_2vx21package_managers_implNtB4_17NpmPackageManagerNtNtB6_17package_ecosystem23UniversalPackageManager9ecosystem
FNDA:0,_RNCNvXs1_NtCse561JCZuupE_2vx21package_managers_implNtB7_22HomebrewPackageManagerNtNtB9_17package_ecosystem23UniversalPackageManager13list_packages0B9_
FNDA:0,_RNCNvXs1_NtCse561JCZuupE_2vx21package_managers_implNtB7_22HomebrewPackageManagerNtNtB9_17package_ecosystem23UniversalPackageManager13list_packagess0_0B9_
FNDA:0,_RNCNvXs1_NtCse561JCZuupE_2vx21package_managers_implNtB7_22HomebrewPackageManagerNtNtB9_17package_ecosystem23UniversalPackageManager13list_packagess1_0B9_
FNDA:0,_RNCNvXs1_NtCse561JCZuupE_2vx21package_managers_implNtB7_22HomebrewPackageManagerNtNtB9_17package_ecosystem23UniversalPackageManager13list_packagess2_0B9_
FNDA:0,_RNCNvXs1_NtCse561JCZuupE_2vx21package_managers_implNtB7_22HomebrewPackageManagerNtNtB9_17package_ecosystem23UniversalPackageManager13list_packagess3_0B9_
FNDA:0,_RNCNvXs1_NtCse561JCZuupE_2vx21package_managers_implNtB7_22HomebrewPackageManagerNtNtB9_17package_ecosystem23UniversalPackageManager13list_packagess4_0B9_
FNDA:0,_RNCNvXs1_NtCse561JCZuupE_2vx21package_managers_implNtB7_22HomebrewPackageManagerNtNtB9_17package_ecosystem23UniversalPackageManager13list_packagess5_0B9_
FNDA:0,_RNCNvXs1_NtCse561JCZuupE_2vx21package_managers_implNtB7_22HomebrewPackageManagerNtNtB9_17package_ecosystem23UniversalPackageManager13list_packagess6_0B9_
FNDA:0,_RNCNvXs1_NtCse561JCZuupE_2vx21package_managers_implNtB7_22HomebrewPackageManagerNtNtB9_17package_ecosystem23UniversalPackageManager13list_packagess_0B9_
FNDA:0,_RNCNvXs1_NtCse561JCZuupE_2vx21package_managers_implNtB7_22HomebrewPackageManagerNtNtB9_17package_ecosystem23UniversalPackageManager15search_packages0B9_
FNDA:0,_RNCNvXs1_NtCse561JCZuupE_2vx21package_managers_implNtB7_22HomebrewPackageManagerNtNtB9_17package_ecosystem23UniversalPackageManager15search_packagess0_0B9_
FNDA:0,_RNCNvXs1_NtCse561JCZuupE_2vx21package_managers_implNtB7_22HomebrewPackageManagerNtNtB9_17package_ecosystem23UniversalPackageManager15search_packagess1_0B9_
FNDA:0,_RNCNvXs1_NtCse561JCZuupE_2vx21package_managers_implNtB7_22HomebrewPackageManagerNtNtB9_17package_ecosystem23UniversalPackageManager15search_packagess2_0B9_
FNDA:0,_RNCNvXs1_NtCse561JCZuupE_2vx21package_managers_implNtB7_22HomebrewPackageManagerNtNtB9_17package_ecosystem23UniversalPackageManager15search_packagess3_0B9_
FNDA:0,_RNCNvXs1_NtCse561JCZuupE_2vx21package_managers_implNtB7_22HomebrewPackageManagerNtNtB9_17package_ecosystem23UniversalPackageManager15search_packagess_0B9_
FNDA:0,_RNvMs0_NtCse561JCZuupE_2vx21package_managers_implNtB5_22HomebrewPackageManager3new
FNDA:0,_RNvXs1_NtCse561JCZuupE_2vx21package_managers_implNtB5_22HomebrewPackageManagerNtNtB7_17package_ecosystem23UniversalPackageManager10get_config
FNDA:0,_RNvXs1_NtCse561JCZuupE_2vx21package_managers_implNtB5_22HomebrewPackageManagerNtNtB7_17package_ecosystem23UniversalPackageManager12is_available
FNDA:0,_RNvXs1_NtCse561JCZuupE_2vx21package_managers_implNtB5_22HomebrewPackageManagerNtNtB7_17package_ecosystem23UniversalPackageManager13list_packages
FNDA:0,_RNvXs1_NtCse561JCZuupE_2vx21package_managers_implNtB5_22HomebrewPackageManagerNtNtB7_17package_ecosystem23UniversalPackageManager15remove_packages
FNDA:0,_RNvXs1_NtCse561JCZuupE_2vx21package_managers_implNtB5_22HomebrewPackageManagerNtNtB7_17package_ecosystem23UniversalPackageManager15search_packages
FNDA:0,_RNvXs1_NtCse561JCZuupE_2vx21package_managers_implNtB5_22HomebrewPackageManagerNtNtB7_17package_ecosystem23UniversalPackageManager15update_packages
FNDA:0,_RNvXs1_NtCse561JCZuupE_2vx21package_managers_implNtB5_22HomebrewPackageManagerNtNtB7_17package_ecosystem23UniversalPackageManager16install_packages
FNDA:0,_RNvXs1_NtCse561JCZuupE_2vx21package_managers_implNtB5_22HomebrewPackageManagerNtNtB7_17package_ecosystem23UniversalPackageManager24is_preferred_for_project
FNDA:0,_RNvXs1_NtCse561JCZuupE_2vx21package_managers_implNtB5_22HomebrewPackageManagerNtNtB7_17package_ecosystem23UniversalPackageManager4name
FNDA:0,_RNvXs1_NtCse561JCZuupE_2vx21package_managers_implNtB5_22HomebrewPackageManagerNtNtB7_17package_ecosystem23UniversalPackageManager9ecosystem
FNDA:0,_RNvXs4_NtCse561JCZuupE_2vx21package_managers_implNtB5_17NpmPackageManagerNtNtCsaDtq73Zt8sT_4core7default7Default7default
FNDA:0,_RNvXs5_NtCse561JCZuupE_2vx21package_managers_implNtB5_22HomebrewPackageManagerNtNtCsaDtq73Zt8sT_4core7default7Default7default
FNDA:0,_RNvXs6_NtCse561JCZuupE_2vx21package_managers_implNtB5_17RezPackageManagerNtNtCsaDtq73Zt8sT_4core7default7Default7default
FNDA:0,_RNCNCNvXs_NtCse561JCZuupE_2vx21package_managers_implNtB8_17NpmPackageManagerNtNtBa_17package_ecosystem23UniversalPackageManager15search_packagess5_0s_0Ba_
FNDA:0,_RNCNCNvXs_NtCse561JCZuupE_2vx21package_managers_implNtB8_17NpmPackageManagerNtNtBa_17package_ecosystem23UniversalPackageManager15search_packagess5_00Ba_
FNDA:0,_RNCNvXs_NtCse561JCZuupE_2vx21package_managers_implNtB6_17NpmPackageManagerNtNtB8_17package_ecosystem23UniversalPackageManager13list_packages0B8_
FNDA:0,_RNCNvXs_NtCse561JCZuupE_2vx21package_managers_implNtB6_17NpmPackageManagerNtNtB8_17package_ecosystem23UniversalPackageManager13list_packagess0_0B8_
FNDA:0,_RNCNvXs_NtCse561JCZuupE_2vx21package_managers_implNtB6_17NpmPackageManagerNtNtB8_17package_ecosystem23UniversalPackageManager13list_packagess1_0B8_
FNDA:0,_RNCNvXs_NtCse561JCZuupE_2vx21package_managers_implNtB6_17NpmPackageManagerNtNtB8_17package_ecosystem23UniversalPackageManager13list_packagess2_0B8_
FNDA:0,_RNCNvXs_NtCse561JCZuupE_2vx21package_managers_implNtB6_17NpmPackageManagerNtNtB8_17package_ecosystem23UniversalPackageManager13list_packagess3_0B8_
FNDA:0,_RNCNvXs_NtCse561JCZuupE_2vx21package_managers_implNtB6_17NpmPackageManagerNtNtB8_17package_ecosystem23UniversalPackageManager13list_packagess_0B8_
FNDA:0,_RNCNvXs_NtCse561JCZuupE_2vx21package_managers_implNtB6_17NpmPackageManagerNtNtB8_17package_ecosystem23UniversalPackageManager15search_packages0B8_
FNDA:0,_RNCNvXs_NtCse561JCZuupE_2vx21package_managers_implNtB6_17NpmPackageManagerNtNtB8_17package_ecosystem23UniversalPackageManager15search_packagess0_0B8_
FNDA:0,_RNCNvXs_NtCse561JCZuupE_2vx21package_managers_implNtB6_17NpmPackageManagerNtNtB8_17package_ecosystem23UniversalPackageManager15search_packagess1_0B8_
FNDA:0,_RNCNvXs_NtCse561JCZuupE_2vx21package_managers_implNtB6_17NpmPackageManagerNtNtB8_17package_ecosystem23UniversalPackageManager15search_packagess2_0B8_
FNDA:0,_RNCNvXs_NtCse561JCZuupE_2vx21package_managers_implNtB6_17NpmPackageManagerNtNtB8_17package_ecosystem23UniversalPackageManager15search_packagess3_0B8_
FNDA:0,_RNCNvXs_NtCse561JCZuupE_2vx21package_managers_implNtB6_17NpmPackageManagerNtNtB8_17package_ecosystem23UniversalPackageManager15search_packagess4_0B8_
FNDA:0,_RNCNvXs_NtCse561JCZuupE_2vx21package_managers_implNtB6_17NpmPackageManagerNtNtB8_17package_ecosystem23UniversalPackageManager15search_packagess5_0B8_
FNDA:0,_RNCNvXs_NtCse561JCZuupE_2vx21package_managers_implNtB6_17NpmPackageManagerNtNtB8_17package_ecosystem23UniversalPackageManager15search_packagess_0B8_
FNDA:2,_RNvMNtCse561JCZuupE_2vx21package_managers_implNtB2_17NpmPackageManager3new
FNDA:2,_RNvMs2_NtCse561JCZuupE_2vx21package_managers_implNtB5_17RezPackageManager3new
FNDA:0,_RNvXs3_NtCse561JCZuupE_2vx21package_managers_implNtB5_17RezPackageManagerNtNtB7_17package_ecosystem23UniversalPackageManager10get_config
FNDA:0,_RNvXs3_NtCse561JCZuupE_2vx21package_managers_implNtB5_17RezPackageManagerNtNtB7_17package_ecosystem23UniversalPackageManager12is_available
FNDA:0,_RNvXs3_NtCse561JCZuupE_2vx21package_managers_implNtB5_17RezPackageManagerNtNtB7_17package_ecosystem23UniversalPackageManager13list_packages
FNDA:0,_RNvXs3_NtCse561JCZuupE_2vx21package_managers_implNtB5_17RezPackageManagerNtNtB7_17package_ecosystem23UniversalPackageManager15remove_packages
FNDA:0,_RNvXs3_NtCse561JCZuupE_2vx21package_managers_implNtB5_17RezPackageManagerNtNtB7_17package_ecosystem23UniversalPackageManager15search_packages
FNDA:0,_RNvXs3_NtCse561JCZuupE_2vx21package_managers_implNtB5_17RezPackageManagerNtNtB7_17package_ecosystem23UniversalPackageManager15update_packages
FNDA:0,_RNvXs3_NtCse561JCZuupE_2vx21package_managers_implNtB5_17RezPackageManagerNtNtB7_17package_ecosystem23UniversalPackageManager16install_packages
FNDA:0,_RNvXs3_NtCse561JCZuupE_2vx21package_managers_implNtB5_17RezPackageManagerNtNtB7_17package_ecosystem23UniversalPackageManager24is_preferred_for_project
FNDA:0,_RNvXs3_NtCse561JCZuupE_2vx21package_managers_implNtB5_17RezPackageManagerNtNtB7_17package_ecosystem23UniversalPackageManager4name
FNDA:2,_RNvXs3_NtCse561JCZuupE_2vx21package_managers_implNtB5_17RezPackageManagerNtNtB7_17package_ecosystem23UniversalPackageManager9ecosystem
FNDA:0,_RNvXs_NtCse561JCZuupE_2vx21package_managers_implNtB4_17NpmPackageManagerNtNtB6_17package_ecosystem23UniversalPackageManager10get_config
FNDA:0,_RNvXs_NtCse561JCZuupE_2vx21package_managers_implNtB4_17NpmPackageManagerNtNtB6_17package_ecosystem23UniversalPackageManager12is_available
FNDA:0,_RNvXs_NtCse561JCZuupE_2vx21package_managers_implNtB4_17NpmPackageManagerNtNtB6_17package_ecosystem23UniversalPackageManager13list_packages
FNDA:0,_RNvXs_NtCse561JCZuupE_2vx21package_managers_implNtB4_17NpmPackageManagerNtNtB6_17package_ecosystem23UniversalPackageManager15remove_packages
FNDA:0,_RNvXs_NtCse561JCZuupE_2vx21package_managers_implNtB4_17NpmPackageManagerNtNtB6_17package_ecosystem23UniversalPackageManager15search_packages
FNDA:0,_RNvXs_NtCse561JCZuupE_2vx21package_managers_implNtB4_17NpmPackageManagerNtNtB6_17package_ecosystem23UniversalPackageManager15update_packages
FNDA:0,_RNvXs_NtCse561JCZuupE_2vx21package_managers_implNtB4_17NpmPackageManagerNtNtB6_17package_ecosystem23UniversalPackageManager16install_packages
FNDA:0,_RNvXs_NtCse561JCZuupE_2vx21package_managers_implNtB4_17NpmPackageManagerNtNtB6_17package_ecosystem23UniversalPackageManager24is_preferred_for_project
FNDA:0,_RNvXs_NtCse561JCZuupE_2vx21package_managers_implNtB4_17NpmPackageManagerNtNtB6_17package_ecosystem23UniversalPackageManager4name
FNDA:2,_RNvXs_NtCse561JCZuupE_2vx21package_managers_implNtB4_17NpmPackageManagerNtNtB6_17package_ecosystem23UniversalPackageManager9ecosystem
FNF:67
FNH:4
DA:15,2
DA:16,2
DA:17,2
DA:18,2
DA:19,2
DA:20,2
DA:21,2
DA:22,2
DA:23,2
DA:24,2
DA:25,2
DA:26,2
DA:27,2
DA:28,2
DA:32,0
DA:33,0
DA:34,0
DA:36,2
DA:37,2
DA:38,2
DA:40,0
DA:41,0
DA:43,0
DA:44,0
DA:45,0
DA:46,0
DA:47,0
DA:48,0
DA:49,0
DA:50,0
DA:51,0
DA:52,0
DA:53,0
DA:56,0
DA:57,0
DA:58,0
DA:59,0
DA:60,0
DA:61,0
DA:63,0
DA:64,0
DA:65,0
DA:67,0
DA:68,0
DA:69,0
DA:70,0
DA:71,0
DA:72,0
DA:74,0
DA:75,0
DA:76,0
DA:77,0
DA:79,0
DA:80,0
DA:81,0
DA:82,0
DA:83,0
DA:84,0
DA:86,0
DA:87,0
DA:88,0
DA:89,0
DA:90,0
DA:91,0
DA:92,0
DA:93,0
DA:94,0
DA:95,0
DA:96,0
DA:97,0
DA:98,0
DA:99,0
DA:100,0
DA:101,0
DA:102,0
DA:103,0
DA:104,0
DA:105,0
DA:106,0
DA:107,0
DA:108,0
DA:109,0
DA:111,0
DA:112,0
DA:113,0
DA:115,0
DA:116,0
DA:117,0
DA:118,0
DA:120,0
DA:121,0
DA:122,0
DA:123,0
DA:124,0
DA:125,0
DA:127,0
DA:128,0
DA:129,0
DA:130,0
DA:131,0
DA:132,0
DA:133,0
DA:134,0
DA:135,0
DA:136,0
DA:137,0
DA:138,0
DA:139,0
DA:140,0
DA:141,0
DA:142,0
DA:143,0
DA:144,0
DA:145,0
DA:146,0
DA:147,0
DA:148,0
DA:149,0
DA:150,0
DA:151,0
DA:152,0
DA:153,0
DA:154,0
DA:155,0
DA:156,0
DA:157,0
DA:158,0
DA:159,0
DA:160,0
DA:161,0
DA:162,0
DA:164,0
DA:165,0
DA:166,0
DA:168,0
DA:169,0
DA:170,0
DA:172,0
DA:173,0
DA:174,0
DA:175,0
DA:176,0
DA:177,0
DA:179,0
DA:180,0
DA:181,0
DA:183,0
DA:184,0
DA:185,0
DA:187,0
DA:188,0
DA:189,0
DA:198,0
DA:199,0
DA:200,0
DA:201,0
DA:202,0
DA:203,0
DA:204,0
DA:205,0
DA:206,0
DA:207,0
DA:208,0
DA:209,0
DA:210,0
DA:211,0
DA:215,0
DA:216,0
DA:217,0
DA:219,0
DA:220,0
DA:221,0
DA:223,0
DA:224,0
DA:225,0
DA:226,0
DA:228,0
DA:229,0
DA:230,0
DA:231,0
DA:233,0
DA:234,0
DA:236,0
DA:237,0
DA:238,0
DA:239,0
DA:240,0
DA:241,0
DA:243,0
DA:244,0
DA:246,0
DA:247,0
DA:249,0
DA:250,0
DA:251,0
DA:252,0
DA:253,0
DA:254,0
DA:256,0
DA:257,0
DA:258,0
DA:259,0
DA:260,0
DA:261,0
DA:262,0
DA:263,0
DA:264,0
DA:265,0
DA:266,0
DA:267,0
DA:268,0
DA:269,0
DA:270,0
DA:271,0
DA:272,0
DA:273,0
DA:274,0
DA:275,0
DA:276,0
DA:277,0
DA:278,0
DA:279,0
DA:280,0
DA:281,0
DA:282,0
DA:283,0
DA:284,0
DA:285,0
DA:286,0
DA:287,0
DA:289,0
DA:290,0
DA:291,0
DA:293,0
DA:294,0
DA:295,0
DA:296,0
DA:298,0
DA:299,0
DA:300,0
DA:301,0
DA:302,0
DA:303,0
DA:304,0
DA:306,0
DA:307,0
DA:308,0
DA:309,0
DA:310,0
DA:311,0
DA:312,0
DA:313,0
DA:314,0
DA:315,0
DA:316,0
DA:317,0
DA:318,0
DA:319,0
DA:320,0
DA:321,0
DA:322,0
DA:323,0
DA:324,0
DA:325,0
DA:326,0
DA:327,0
DA:328,0
DA:329,0
DA:331,0
DA:332,0
DA:333,0
DA:335,0
DA:336,0
DA:338,0
DA:339,0
DA:340,0
DA:341,0
DA:344,0
DA:345,0
DA:346,0
DA:347,0
DA:348,0
DA:351,0
DA:352,0
DA:354,0
DA:355,0
DA:356,0
DA:358,0
DA:359,0
DA:360,0
DA:362,0
DA:363,0
DA:364,0
DA:365,0
DA:374,2
DA:375,2
DA:376,2
DA:377,2
DA:378,2
DA:379,2
DA:380,2
DA:381,2
DA:382,2
DA:383,2
DA:384,2
DA:385,2
DA:386,2
DA:387,2
DA:391,0
DA:392,0
DA:393,0
DA:395,2
DA:396,2
DA:397,2
DA:399,0
DA:402,0
DA:403,0
DA:404,0
DA:405,0
DA:406,0
DA:408,0
DA:409,0
DA:410,0
DA:411,0
DA:413,0
DA:414,0
DA:416,0
DA:417,0
DA:418,0
DA:419,0
DA:420,0
DA:422,0
DA:423,0
DA:424,0
DA:425,0
DA:427,0
DA:428,0
DA:429,0
DA:430,0
DA:431,0
DA:432,0
DA:433,0
DA:434,0
DA:436,0
DA:437,0
DA:438,0
DA:439,0
DA:441,0
DA:442,0
DA:443,0
DA:444,0
DA:445,0
DA:446,0
DA:447,0
DA:448,0
DA:450,0
DA:451,0
DA:452,0
DA:453,0
DA:455,0
DA:456,0
DA:457,0
DA:459,0
DA:460,0
DA:461,0
DA:463,0
DA:464,0
DA:465,0
DA:469,0
DA:470,0
DA:471,0
DA:475,0
DA:476,0
DA:477,0
DA:481,0
DA:482,0
DA:483,0
BRF:0
BRH:0
LF:409
LH:34
end_of_record
SF:C:\github\mcpx\src\tool.rs
FN:72,_RNCNvMNtCs8vv7mWF5ug8_2vx4toolNtB4_8ToolInfo9from_tool0B6_
FN:61,_RNvMNtCs8vv7mWF5ug8_2vx4toolNtB2_8ToolInfo9from_tool
FN:25,_RNvYpNtNtCse561JCZuupE_2vx4tool4Tool11descriptionB7_
FN:35,_RNvYpNtNtCse561JCZuupE_2vx4tool4Tool21supports_auto_installB7_
FN:30,_RNvYpNtNtCse561JCZuupE_2vx4tool4Tool8homepageB7_
FN:72,_RNCNvMNtCse561JCZuupE_2vx4toolNtB4_8ToolInfo9from_tool0B6_
FN:61,_RNvMNtCse561JCZuupE_2vx4toolNtB2_8ToolInfo9from_tool
FNDA:13,_RNCNvMNtCs8vv7mWF5ug8_2vx4toolNtB4_8ToolInfo9from_tool0B6_
FNDA:13,_RNvMNtCs8vv7mWF5ug8_2vx4toolNtB2_8ToolInfo9from_tool
FNDA:0,_RNvYpNtNtCse561JCZuupE_2vx4tool4Tool11descriptionB7_
FNDA:0,_RNvYpNtNtCse561JCZuupE_2vx4tool4Tool21supports_auto_installB7_
FNDA:0,_RNvYpNtNtCse561JCZuupE_2vx4tool4Tool8homepageB7_
FNDA:2,_RNCNvMNtCse561JCZuupE_2vx4toolNtB4_8ToolInfo9from_tool0B6_
FNDA:2,_RNvMNtCse561JCZuupE_2vx4toolNtB2_8ToolInfo9from_tool
FNF:5
FNH:2
DA:25,0
DA:26,0
DA:27,0
DA:30,0
DA:31,0
DA:32,0
DA:35,0
DA:36,0
DA:37,0
DA:61,15
DA:62,15
DA:63,15
DA:64,15
DA:66,0
DA:69,15
DA:70,15
DA:71,15
DA:72,15
DA:73,15
DA:74,15
DA:75,15
DA:76,15
DA:77,15
BRF:0
BRH:0
LF:24
LH:14
end_of_record
SF:C:\github\mcpx\src\tool_manager.rs
FN:22,_RNCNCNvMNtCs8vv7mWF5ug8_2vx12tool_managerNtB6_11ToolManager3new00B8_
FN:45,_RNCNCNvMNtCs8vv7mWF5ug8_2vx12tool_managerNtB6_11ToolManager7minimal00B8_
FN:61,_RNCNvMNtCs8vv7mWF5ug8_2vx12tool_managerNtB4_11ToolManager12execute_tool0B6_
FN:85,_RNCNvMNtCs8vv7mWF5ug8_2vx12tool_managerNtB4_11ToolManager12install_tool0B6_
FN:99,_RNCNvMNtCs8vv7mWF5ug8_2vx12tool_managerNtB4_11ToolManager12install_tools0_0B6_
FN:98,_RNCNvMNtCs8vv7mWF5ug8_2vx12tool_managerNtB4_11ToolManager12install_tools_0B6_
FN:141,_RNCNvMNtCs8vv7mWF5ug8_2vx12tool_managerNtB4_11ToolManager17check_tool_status0B6_
FN:150,_RNCNvMNtCs8vv7mWF5ug8_2vx12tool_managerNtB4_11ToolManager17check_tool_statuss_0B6_
FN:22,_RNCNvMNtCs8vv7mWF5ug8_2vx12tool_managerNtB4_11ToolManager3new0B6_
FN:45,_RNCNvMNtCs8vv7mWF5ug8_2vx12tool_managerNtB4_11ToolManager7minimal0B6_
FN:57,_RNvMNtCs8vv7mWF5ug8_2vx12tool_managerNtB2_11ToolManager12execute_tool
FN:81,_RNvMNtCs8vv7mWF5ug8_2vx12tool_managerNtB2_11ToolManager12install_tool
FN:127,_RNvMNtCs8vv7mWF5ug8_2vx12tool_managerNtB2_11ToolManager13get_all_tools
FN:122,_RNvMNtCs8vv7mWF5ug8_2vx12tool_managerNtB2_11ToolManager13get_tool_info
FN:167,_RNvMNtCs8vv7mWF5ug8_2vx12tool_managerNtB2_11ToolManager13reload_config
FN:132,_RNvMNtCs8vv7mWF5ug8_2vx12tool_managerNtB2_11ToolManager14get_tool_names
FN:34,_RNvMNtCs8vv7mWF5ug8_2vx12tool_managerNtB2_11ToolManager15new_with_config
FN:137,_RNvMNtCs8vv7mWF5ug8_2vx12tool_managerNtB2_11ToolManager17check_tool_status
FN:20,_RNvMNtCs8vv7mWF5ug8_2vx12tool_managerNtB2_11ToolManager3new
FN:162,_RNvMNtCs8vv7mWF5ug8_2vx12tool_managerNtB2_11ToolManager6config
FN:43,_RNvMNtCs8vv7mWF5ug8_2vx12tool_managerNtB2_11ToolManager7minimal
FN:117,_RNvMNtCs8vv7mWF5ug8_2vx12tool_managerNtB2_11ToolManager8has_tool
FN:184,_RNvMs_NtCs8vv7mWF5ug8_2vx12tool_managerNtB4_10ToolStatus12needs_action
FN:199,_RNvMs_NtCs8vv7mWF5ug8_2vx12tool_managerNtB4_10ToolStatus7summary
FN:61,_RNCNvMNtCse561JCZuupE_2vx12tool_managerNtB4_11ToolManager12execute_tool0B6_
FN:85,_RNCNvMNtCse561JCZuupE_2vx12tool_managerNtB4_11ToolManager12install_tool0B6_
FN:99,_RNCNvMNtCse561JCZuupE_2vx12tool_managerNtB4_11ToolManager12install_tools0_0B6_
FN:98,_RNCNvMNtCse561JCZuupE_2vx12tool_managerNtB4_11ToolManager12install_tools_0B6_
FN:57,_RNvMNtCse561JCZuupE_2vx12tool_managerNtB2_11ToolManager12execute_tool
FN:81,_RNvMNtCse561JCZuupE_2vx12tool_managerNtB2_11ToolManager12install_tool
FN:127,_RNvMNtCse561JCZuupE_2vx12tool_managerNtB2_11ToolManager13get_all_tools
FN:167,_RNvMNtCse561JCZuupE_2vx12tool_managerNtB2_11ToolManager13reload_config
FN:132,_RNvMNtCse561JCZuupE_2vx12tool_managerNtB2_11ToolManager14get_tool_names
FN:34,_RNvMNtCse561JCZuupE_2vx12tool_managerNtB2_11ToolManager15new_with_config
FN:162,_RNvMNtCse561JCZuupE_2vx12tool_managerNtB2_11ToolManager6config
FN:184,_RNvMs_NtCse561JCZuupE_2vx12tool_managerNtB4_10ToolStatus12needs_action
FN:199,_RNvMs_NtCse561JCZuupE_2vx12tool_managerNtB4_10ToolStatus7summary
FN:22,_RNCNCNvMNtCse561JCZuupE_2vx12tool_managerNtB6_11ToolManager3new00B8_
FN:45,_RNCNCNvMNtCse561JCZuupE_2vx12tool_managerNtB6_11ToolManager7minimal00B8_
FN:141,_RNCNvMNtCse561JCZuupE_2vx12tool_managerNtB4_11ToolManager17check_tool_status0B6_
FN:150,_RNCNvMNtCse561JCZuupE_2vx12tool_managerNtB4_11ToolManager17check_tool_statuss_0B6_
FN:22,_RNCNvMNtCse561JCZuupE_2vx12tool_managerNtB4_11ToolManager3new0B6_
FN:45,_RNCNvMNtCse561JCZuupE_2vx12tool_managerNtB4_11ToolManager7minimal0B6_
FN:122,_RNvMNtCse561JCZuupE_2vx12tool_managerNtB2_11ToolManager13get_tool_info
FN:137,_RNvMNtCse561JCZuupE_2vx12tool_managerNtB2_11ToolManager17check_tool_status
FN:20,_RNvMNtCse561JCZuupE_2vx12tool_managerNtB2_11ToolManager3new
FN:43,_RNvMNtCse561JCZuupE_2vx12tool_managerNtB2_11ToolManager7minimal
FN:117,_RNvMNtCse561JCZuupE_2vx12tool_managerNtB2_11ToolManager8has_tool
FN:221,_RNCNvNtNtCse561JCZuupE_2vx12tool_manager5testss_26test_tool_manager_creation0B7_
FN:235,_RNvNtNtCse561JCZuupE_2vx12tool_manager5testss_14test_tool_info
FN:246,_RNvNtNtCse561JCZuupE_2vx12tool_manager5testss_16test_tool_status
FN:226,_RNvNtNtCse561JCZuupE_2vx12tool_manager5testss_22test_tool_availability
FN:219,_RNvNtNtCse561JCZuupE_2vx12tool_manager5testss_26test_tool_manager_creation
FNDA:0,_RNCNCNvMNtCs8vv7mWF5ug8_2vx12tool_managerNtB6_11ToolManager3new00B8_
FNDA:0,_RNCNCNvMNtCs8vv7mWF5ug8_2vx12tool_managerNtB6_11ToolManager7minimal00B8_
FNDA:0,_RNCNvMNtCs8vv7mWF5ug8_2vx12tool_managerNtB4_11ToolManager12execute_tool0B6_
FNDA:0,_RNCNvMNtCs8vv7mWF5ug8_2vx12tool_managerNtB4_11ToolManager12install_tool0B6_
FNDA:0,_RNCNvMNtCs8vv7mWF5ug8_2vx12tool_managerNtB4_11ToolManager12install_tools0_0B6_
FNDA:0,_RNCNvMNtCs8vv7mWF5ug8_2vx12tool_managerNtB4_11ToolManager12install_tools_0B6_
FNDA:0,_RNCNvMNtCs8vv7mWF5ug8_2vx12tool_managerNtB4_11ToolManager17check_tool_status0B6_
FNDA:0,_RNCNvMNtCs8vv7mWF5ug8_2vx12tool_managerNtB4_11ToolManager17check_tool_statuss_0B6_
FNDA:0,_RNCNvMNtCs8vv7mWF5ug8_2vx12tool_managerNtB4_11ToolManager3new0B6_
FNDA:0,_RNCNvMNtCs8vv7mWF5ug8_2vx12tool_managerNtB4_11ToolManager7minimal0B6_
FNDA:0,_RNvMNtCs8vv7mWF5ug8_2vx12tool_managerNtB2_11ToolManager12execute_tool
FNDA:0,_RNvMNtCs8vv7mWF5ug8_2vx12tool_managerNtB2_11ToolManager12install_tool
FNDA:2,_RNvMNtCs8vv7mWF5ug8_2vx12tool_managerNtB2_11ToolManager13get_all_tools
FNDA:2,_RNvMNtCs8vv7mWF5ug8_2vx12tool_managerNtB2_11ToolManager13get_tool_info
FNDA:1,_RNvMNtCs8vv7mWF5ug8_2vx12tool_managerNtB2_11ToolManager13reload_config
FNDA:1,_RNvMNtCs8vv7mWF5ug8_2vx12tool_managerNtB2_11ToolManager14get_tool_names
FNDA:0,_RNvMNtCs8vv7mWF5ug8_2vx12tool_managerNtB2_11ToolManager15new_with_config
FNDA:5,_RNvMNtCs8vv7mWF5ug8_2vx12tool_managerNtB2_11ToolManager17check_tool_status
FNDA:0,_RNvMNtCs8vv7mWF5ug8_2vx12tool_managerNtB2_11ToolManager3new
FNDA:1,_RNvMNtCs8vv7mWF5ug8_2vx12tool_managerNtB2_11ToolManager6config
FNDA:7,_RNvMNtCs8vv7mWF5ug8_2vx12tool_managerNtB2_11ToolManager7minimal
FNDA:13,_RNvMNtCs8vv7mWF5ug8_2vx12tool_managerNtB2_11ToolManager8has_tool
FNDA:2,_RNvMs_NtCs8vv7mWF5ug8_2vx12tool_managerNtB4_10ToolStatus12needs_action
FNDA:2,_RNvMs_NtCs8vv7mWF5ug8_2vx12tool_managerNtB4_10ToolStatus7summary
FNDA:0,_RNCNvMNtCse561JCZuupE_2vx12tool_managerNtB4_11ToolManager12execute_tool0B6_
FNDA:0,_RNCNvMNtCse561JCZuupE_2vx12tool_managerNtB4_11ToolManager12install_tool0B6_
FNDA:0,_RNCNvMNtCse561JCZuupE_2vx12tool_managerNtB4_11ToolManager12install_tools0_0B6_
FNDA:0,_RNCNvMNtCse561JCZuupE_2vx12tool_managerNtB4_11ToolManager12install_tools_0B6_
FNDA:0,_RNvMNtCse561JCZuupE_2vx12tool_managerNtB2_11ToolManager12execute_tool
FNDA:0,_RNvMNtCse561JCZuupE_2vx12tool_managerNtB2_11ToolManager12install_tool
FNDA:0,_RNvMNtCse561JCZuupE_2vx12tool_managerNtB2_11ToolManager13get_all_tools
FNDA:0,_RNvMNtCse561JCZuupE_2vx12tool_managerNtB2_11ToolManager13reload_config
FNDA:0,_RNvMNtCse561JCZuupE_2vx12tool_managerNtB2_11ToolManager14get_tool_names
FNDA:0,_RNvMNtCse561JCZuupE_2vx12tool_managerNtB2_11ToolManager15new_with_config
FNDA:0,_RNvMNtCse561JCZuupE_2vx12tool_managerNtB2_11ToolManager6config
FNDA:0,_RNvMs_NtCse561JCZuupE_2vx12tool_managerNtB4_10ToolStatus12needs_action
FNDA:0,_RNvMs_NtCse561JCZuupE_2vx12tool_managerNtB4_10ToolStatus7summary
FNDA:0,_RNCNCNvMNtCse561JCZuupE_2vx12tool_managerNtB6_11ToolManager3new00B8_
FNDA:0,_RNCNCNvMNtCse561JCZuupE_2vx12tool_managerNtB6_11ToolManager7minimal00B8_
FNDA:0,_RNCNvMNtCse561JCZuupE_2vx12tool_managerNtB4_11ToolManager17check_tool_status0B6_
FNDA:0,_RNCNvMNtCse561JCZuupE_2vx12tool_managerNtB4_11ToolManager17check_tool_statuss_0B6_
FNDA:0,_RNCNvMNtCse561JCZuupE_2vx12tool_managerNtB4_11ToolManager3new0B6_
FNDA:0,_RNCNvMNtCse561JCZuupE_2vx12tool_managerNtB4_11ToolManager7minimal0B6_
FNDA:1,_RNvMNtCse561JCZuupE_2vx12tool_managerNtB2_11ToolManager13get_tool_info
FNDA:1,_RNvMNtCse561JCZuupE_2vx12tool_managerNtB2_11ToolManager17check_tool_status
FNDA:2,_RNvMNtCse561JCZuupE_2vx12tool_managerNtB2_11ToolManager3new
FNDA:3,_RNvMNtCse561JCZuupE_2vx12tool_managerNtB2_11ToolManager7minimal
FNDA:3,_RNvMNtCse561JCZuupE_2vx12tool_managerNtB2_11ToolManager8has_tool
FNDA:0,_RNCNvNtNtCse561JCZuupE_2vx12tool_manager5testss_26test_tool_manager_creation0B7_
FNDA:1,_RNvNtNtCse561JCZuupE_2vx12tool_manager5testss_14test_tool_info
FNDA:1,_RNvNtNtCse561JCZuupE_2vx12tool_manager5testss_16test_tool_status
FNDA:1,_RNvNtNtCse561JCZuupE_2vx12tool_manager5testss_22test_tool_availability
FNDA:1,_RNvNtNtCse561JCZuupE_2vx12tool_manager5testss_26test_tool_manager_creation
FNF:29
FNH:15
DA:20,2
DA:21,2
DA:22,2
DA:23,2
DA:24,2
DA:25,2
DA:26,2
DA:27,2
DA:28,2
DA:29,2
DA:31,2
DA:34,0
DA:35,0
DA:36,0
DA:37,0
DA:38,0
DA:39,0
DA:40,0
DA:43,10
DA:44,10
DA:45,10
DA:46,10
DA:47,10
DA:48,10
DA:49,10
DA:50,10
DA:51,10
DA:52,10
DA:54,10
DA:57,0
DA:58,0
DA:59,0
DA:60,0
DA:61,0
DA:64,0
DA:65,0
DA:66,0
DA:67,0
DA:69,0
DA:70,0
DA:71,0
DA:72,0
DA:74,0
DA:77,0
DA:78,0
DA:81,0
DA:82,0
DA:83,0
DA:84,0
DA:85,0
DA:87,0
DA:88,0
DA:89,0
DA:90,0
DA:91,0
DA:92,0
DA:93,0
DA:94,0
DA:95,0
DA:96,0
DA:97,0
DA:98,0
DA:99,0
DA:102,0
DA:104,0
DA:105,0
DA:106,0
DA:107,0
DA:108,0
DA:109,0
DA:110,0
DA:112,0
DA:113,0
DA:114,0
DA:117,16
DA:118,16
DA:119,16
DA:122,3
DA:123,3
DA:124,3
DA:127,2
DA:128,2
DA:129,2
DA:132,1
DA:133,1
DA:134,1
DA:137,6
DA:138,6
DA:139,6
DA:140,6
DA:141,6
DA:143,6
DA:144,6
DA:147,6
DA:148,6
DA:149,6
DA:150,6
DA:151,6
DA:152,6
DA:153,6
DA:154,6
DA:155,6
DA:156,6
DA:157,6
DA:158,6
DA:159,6
DA:162,1
DA:163,1
DA:164,1
DA:167,1
DA:168,1
DA:169,1
DA:184,2
DA:185,2
DA:186,0
DA:187,2
DA:190,2
DA:192,0
DA:193,2
DA:194,2
DA:195,2
DA:196,2
DA:199,2
DA:200,2
DA:201,2
DA:202,0
DA:204,0
DA:205,0
DA:207,0
DA:211,2
DA:219,1
DA:220,1
DA:221,1
DA:222,1
DA:223,1
DA:226,1
DA:227,1
DA:228,1
DA:229,1
DA:230,1
DA:231,1
DA:232,1
DA:235,1
DA:236,1
DA:237,1
DA:238,1
DA:239,1
DA:241,1
DA:242,1
DA:243,1
DA:246,1
DA:247,1
DA:248,1
DA:249,1
DA:250,1
DA:252,1
DA:253,1
DA:254,1
DA:255,1
BRF:0
BRH:0
LF:170
LH:101
end_of_record
SF:C:\github\mcpx\src\tool_registry.rs
FN:51,_RNCNvMNtCs8vv7mWF5ug8_2vx13tool_registryNtB4_12ToolRegistry17get_all_tool_info0B6_
FN:59,_RNCNvMNtCs8vv7mWF5ug8_2vx13tool_registryNtB4_12ToolRegistry13get_tool_info0B6_
FN:34,_RNCNvMNtCs8vv7mWF5ug8_2vx13tool_registryNtB4_12ToolRegistry3get0B6_
FN:43,_RNvMNtCs8vv7mWF5ug8_2vx13tool_registryNtB2_12ToolRegistry10tool_names
FN:56,_RNvMNtCs8vv7mWF5ug8_2vx13tool_registryNtB2_12ToolRegistry13get_tool_info
FN:48,_RNvMNtCs8vv7mWF5ug8_2vx13tool_registryNtB2_12ToolRegistry17get_all_tool_info
FN:64,_RNvMNtCs8vv7mWF5ug8_2vx13tool_registryNtB2_12ToolRegistry22register_builtin_tools
FN:33,_RNvMNtCs8vv7mWF5ug8_2vx13tool_registryNtB2_12ToolRegistry3get
FN:15,_RNvMNtCs8vv7mWF5ug8_2vx13tool_registryNtB2_12ToolRegistry3new
FN:38,_RNvMNtCs8vv7mWF5ug8_2vx13tool_registryNtB2_12ToolRegistry8has_tool
FN:27,_RNvMNtCs8vv7mWF5ug8_2vx13tool_registryNtB2_12ToolRegistry8register
FN:79,_RNvXs_NtCs8vv7mWF5ug8_2vx13tool_registryNtB4_12ToolRegistryNtNtCsaDtq73Zt8sT_4core7default7Default7default
FN:51,_RNCNvMNtCse561JCZuupE_2vx13tool_registryNtB4_12ToolRegistry17get_all_tool_info0B6_
FN:48,_RNvMNtCse561JCZuupE_2vx13tool_registryNtB2_12ToolRegistry17get_all_tool_info
FN:79,_RNvXs_NtCse561JCZuupE_2vx13tool_registryNtB4_12ToolRegistryNtNtCsaDtq73Zt8sT_4core7default7Default7default
FN:119,_RNvNtNtCse561JCZuupE_2vx13tool_registry5testss_14test_tool_info
FN:107,_RNvNtNtCse561JCZuupE_2vx13tool_registry5testss_19test_tool_retrieval
FN:89,_RNvNtNtCse561JCZuupE_2vx13tool_registry5testss_22test_registry_creation
FN:95,_RNvNtNtCse561JCZuupE_2vx13tool_registry5testss_22test_tool_registration
FN:59,_RNCNvMNtCse561JCZuupE_2vx13tool_registryNtB4_12ToolRegistry13get_tool_info0B6_
FN:34,_RNCNvMNtCse561JCZuupE_2vx13tool_registryNtB4_12ToolRegistry3get0B6_
FN:43,_RNvMNtCse561JCZuupE_2vx13tool_registryNtB2_12ToolRegistry10tool_names
FN:56,_RNvMNtCse561JCZuupE_2vx13tool_registryNtB2_12ToolRegistry13get_tool_info
FN:64,_RNvMNtCse561JCZuupE_2vx13tool_registryNtB2_12ToolRegistry22register_builtin_tools
FN:33,_RNvMNtCse561JCZuupE_2vx13tool_registryNtB2_12ToolRegistry3get
FN:15,_RNvMNtCse561JCZuupE_2vx13tool_registryNtB2_12ToolRegistry3new
FN:38,_RNvMNtCse561JCZuupE_2vx13tool_registryNtB2_12ToolRegistry8has_tool
FN:27,_RNvMNtCse561JCZuupE_2vx13tool_registryNtB2_12ToolRegistry8register
FNDA:10,_RNCNvMNtCs8vv7mWF5ug8_2vx13tool_registryNtB4_12ToolRegistry17get_all_tool_info0B6_
FNDA:0,_RNCNvMNtCs8vv7mWF5ug8_2vx13tool_registryNtB4_12ToolRegistry13get_tool_info0B6_
FNDA:8,_RNCNvMNtCs8vv7mWF5ug8_2vx13tool_registryNtB4_12ToolRegistry3get0B6_
FNDA:2,_RNvMNtCs8vv7mWF5ug8_2vx13tool_registryNtB2_12ToolRegistry10tool_names
FNDA:3,_RNvMNtCs8vv7mWF5ug8_2vx13tool_registryNtB2_12ToolRegistry13get_tool_info
FNDA:2,_RNvMNtCs8vv7mWF5ug8_2vx13tool_registryNtB2_12ToolRegistry17get_all_tool_info
FNDA:8,_RNvMNtCs8vv7mWF5ug8_2vx13tool_registryNtB2_12ToolRegistry22register_builtin_tools
FNDA:8,_RNvMNtCs8vv7mWF5ug8_2vx13tool_registryNtB2_12ToolRegistry3get
FNDA:8,_RNvMNtCs8vv7mWF5ug8_2vx13tool_registryNtB2_12ToolRegistry3new
FNDA:17,_RNvMNtCs8vv7mWF5ug8_2vx13tool_registryNtB2_12ToolRegistry8has_tool
FNDA:40,_RNvMNtCs8vv7mWF5ug8_2vx13tool_registryNtB2_12ToolRegistry8register
FNDA:0,_RNvXs_NtCs8vv7mWF5ug8_2vx13tool_registryNtB4_12ToolRegistryNtNtCsaDtq73Zt8sT_4core7default7Default7default
FNDA:0,_RNCNvMNtCse561JCZuupE_2vx13tool_registryNtB4_12ToolRegistry17get_all_tool_info0B6_
FNDA:0,_RNvMNtCse561JCZuupE_2vx13tool_registryNtB2_12ToolRegistry17get_all_tool_info
FNDA:0,_RNvXs_NtCse561JCZuupE_2vx13tool_registryNtB4_12ToolRegistryNtNtCsaDtq73Zt8sT_4core7default7Default7default
FNDA:1,_RNvNtNtCse561JCZuupE_2vx13tool_registry5testss_14test_tool_info
FNDA:1,_RNvNtNtCse561JCZuupE_2vx13tool_registry5testss_19test_tool_retrieval
FNDA:1,_RNvNtNtCse561JCZuupE_2vx13tool_registry5testss_22test_registry_creation
FNDA:1,_RNvNtNtCse561JCZuupE_2vx13tool_registry5testss_22test_tool_registration
FNDA:0,_RNCNvMNtCse561JCZuupE_2vx13tool_registryNtB4_12ToolRegistry13get_tool_info0B6_
FNDA:4,_RNCNvMNtCse561JCZuupE_2vx13tool_registryNtB4_12ToolRegistry3get0B6_
FNDA:1,_RNvMNtCse561JCZuupE_2vx13tool_registryNtB2_12ToolRegistry10tool_names
FNDA:2,_RNvMNtCse561JCZuupE_2vx13tool_registryNtB2_12ToolRegistry13get_tool_info
FNDA:9,_RNvMNtCse561JCZuupE_2vx13tool_registryNtB2_12ToolRegistry22register_builtin_tools
FNDA:5,_RNvMNtCse561JCZuupE_2vx13tool_registryNtB2_12ToolRegistry3get
FNDA:9,_RNvMNtCse561JCZuupE_2vx13tool_registryNtB2_12ToolRegistry3new
FNDA:8,_RNvMNtCse561JCZuupE_2vx13tool_registryNtB2_12ToolRegistry8has_tool
FNDA:45,_RNvMNtCse561JCZuupE_2vx13tool_registryNtB2_12ToolRegistry8register
FNF:16
FNH:14
DA:15,17
DA:16,17
DA:17,17
DA:18,17
DA:19,17
DA:20,17
DA:21,17
DA:22,17
DA:23,17
DA:24,17
DA:27,85
DA:28,85
DA:29,85
DA:30,85
DA:33,13
DA:34,13
DA:35,13
DA:38,25
DA:39,25
DA:40,25
DA:43,3
DA:44,3
DA:45,3
DA:48,2
DA:49,2
DA:50,2
DA:51,10
DA:52,2
DA:53,2
DA:56,5
DA:57,5
DA:58,5
DA:59,5
DA:60,5
DA:61,5
DA:64,17
DA:70,17
DA:71,17
DA:72,17
DA:73,17
DA:74,17
DA:75,17
DA:79,0
DA:80,0
DA:81,0
DA:89,1
DA:90,1
DA:91,1
DA:92,1
DA:95,1
DA:96,1
DA:97,1
DA:98,1
DA:99,1
DA:100,1
DA:101,1
DA:102,1
DA:103,1
DA:104,1
DA:107,1
DA:108,1
DA:109,1
DA:110,1
DA:111,1
DA:112,1
DA:114,1
DA:115,1
DA:116,1
DA:119,1
DA:120,1
DA:121,1
DA:122,1
DA:123,1
DA:125,1
DA:126,1
DA:127,1
DA:128,1
BRF:0
BRH:0
LF:80
LH:76
end_of_record
SF:C:\github\mcpx\src\tools\go.rs
FN:11,_RNvMNtNtCs8vv7mWF5ug8_2vx5tools2goNtB2_6GoTool3new
FN:69,_RNvXs0_NtNtCs8vv7mWF5ug8_2vx5tools2goNtB5_6GoToolNtNtCsaDtq73Zt8sT_4core7default7Default7default
FN:21,_RNvXs_NtNtCs8vv7mWF5ug8_2vx5tools2goNtB4_6GoToolNtNtB8_4tool4Tool11description
FN:33,_RNvXs_NtNtCs8vv7mWF5ug8_2vx5tools2goNtB4_6GoToolNtNtB8_4tool4Tool11get_version
FN:29,_RNvXs_NtNtCs8vv7mWF5ug8_2vx5tools2goNtB4_6GoToolNtNtB8_4tool4Tool12is_installed
FN:50,_RNvXs_NtNtCs8vv7mWF5ug8_2vx5tools2goNtB4_6GoToolNtNtB8_4tool4Tool19get_executable_path
FN:63,_RNvXs_NtNtCs8vv7mWF5ug8_2vx5tools2goNtB4_6GoToolNtNtB8_4tool4Tool21supports_auto_install
FN:17,_RNvXs_NtNtCs8vv7mWF5ug8_2vx5tools2goNtB4_6GoToolNtNtB8_4tool4Tool4name
FN:58,_RNvXs_NtNtCs8vv7mWF5ug8_2vx5tools2goNtB4_6GoToolNtNtB8_4tool4Tool7execute
FN:25,_RNvXs_NtNtCs8vv7mWF5ug8_2vx5tools2goNtB4_6GoToolNtNtB8_4tool4Tool8homepage
FN:69,_RNvXs0_NtNtCse561JCZuupE_2vx5tools2goNtB5_6GoToolNtNtCsaDtq73Zt8sT_4core7default7Default7default
FN:11,_RNvMNtNtCse561JCZuupE_2vx5tools2goNtB2_6GoTool3new
FN:21,_RNvXs_NtNtCse561JCZuupE_2vx5tools2goNtB4_6GoToolNtNtB8_4tool4Tool11description
FN:33,_RNvXs_NtNtCse561JCZuupE_2vx5tools2goNtB4_6GoToolNtNtB8_4tool4Tool11get_version
FN:29,_RNvXs_NtNtCse561JCZuupE_2vx5tools2goNtB4_6GoToolNtNtB8_4tool4Tool12is_installed
FN:50,_RNvXs_NtNtCse561JCZuupE_2vx5tools2goNtB4_6GoToolNtNtB8_4tool4Tool19get_executable_path
FN:63,_RNvXs_NtNtCse561JCZuupE_2vx5tools2goNtB4_6GoToolNtNtB8_4tool4Tool21supports_auto_install
FN:17,_RNvXs_NtNtCse561JCZuupE_2vx5tools2goNtB4_6GoToolNtNtB8_4tool4Tool4name
FN:58,_RNvXs_NtNtCse561JCZuupE_2vx5tools2goNtB4_6GoToolNtNtB8_4tool4Tool7execute
FN:25,_RNvXs_NtNtCse561JCZuupE_2vx5tools2goNtB4_6GoToolNtNtB8_4tool4Tool8homepage
FN:79,_RNvNtNtNtCse561JCZuupE_2vx5tools2go5testss_21test_go_tool_creation
FNDA:8,_RNvMNtNtCs8vv7mWF5ug8_2vx5tools2goNtB2_6GoTool3new
FNDA:0,_RNvXs0_NtNtCs8vv7mWF5ug8_2vx5tools2goNtB5_6GoToolNtNtCsaDtq73Zt8sT_4core7default7Default7default
FNDA:2,_RNvXs_NtNtCs8vv7mWF5ug8_2vx5tools2goNtB4_6GoToolNtNtB8_4tool4Tool11description
FNDA:3,_RNvXs_NtNtCs8vv7mWF5ug8_2vx5tools2goNtB4_6GoToolNtNtB8_4tool4Tool11get_version
FNDA:3,_RNvXs_NtNtCs8vv7mWF5ug8_2vx5tools2goNtB4_6GoToolNtNtB8_4tool4Tool12is_installed
FNDA:0,_RNvXs_NtNtCs8vv7mWF5ug8_2vx5tools2goNtB4_6GoToolNtNtB8_4tool4Tool19get_executable_path
FNDA:3,_RNvXs_NtNtCs8vv7mWF5ug8_2vx5tools2goNtB4_6GoToolNtNtB8_4tool4Tool21supports_auto_install
FNDA:10,_RNvXs_NtNtCs8vv7mWF5ug8_2vx5tools2goNtB4_6GoToolNtNtB8_4tool4Tool4name
FNDA:0,_RNvXs_NtNtCs8vv7mWF5ug8_2vx5tools2goNtB4_6GoToolNtNtB8_4tool4Tool7execute
FNDA:2,_RNvXs_NtNtCs8vv7mWF5ug8_2vx5tools2goNtB4_6GoToolNtNtB8_4tool4Tool8homepage
FNDA:0,_RNvXs0_NtNtCse561JCZuupE_2vx5tools2goNtB5_6GoToolNtNtCsaDtq73Zt8sT_4core7default7Default7default
FNDA:10,_RNvMNtNtCse561JCZuupE_2vx5tools2goNtB2_6GoTool3new
FNDA:1,_RNvXs_NtNtCse561JCZuupE_2vx5tools2goNtB4_6GoToolNtNtB8_4tool4Tool11description
FNDA:0,_RNvXs_NtNtCse561JCZuupE_2vx5tools2goNtB4_6GoToolNtNtB8_4tool4Tool11get_version
FNDA:0,_RNvXs_NtNtCse561JCZuupE_2vx5tools2goNtB4_6GoToolNtNtB8_4tool4Tool12is_installed
FNDA:0,_RNvXs_NtNtCse561JCZuupE_2vx5tools2goNtB4_6GoToolNtNtB8_4tool4Tool19get_executable_path
FNDA:1,_RNvXs_NtNtCse561JCZuupE_2vx5tools2goNtB4_6GoToolNtNtB8_4tool4Tool21supports_auto_install
FNDA:10,_RNvXs_NtNtCse561JCZuupE_2vx5tools2goNtB4_6GoToolNtNtB8_4tool4Tool4name
FNDA:0,_RNvXs_NtNtCse561JCZuupE_2vx5tools2goNtB4_6GoToolNtNtB8_4tool4Tool7execute
FNDA:1,_RNvXs_NtNtCse561JCZuupE_2vx5tools2goNtB4_6GoToolNtNtB8_4tool4Tool8homepage
FNDA:1,_RNvNtNtNtCse561JCZuupE_2vx5tools2go5testss_21test_go_tool_creation
FNF:11
FNH:8
DA:11,18
DA:12,18
DA:13,18
DA:17,20
DA:18,20
DA:19,20
DA:21,3
DA:22,3
DA:23,3
DA:25,3
DA:26,3
DA:27,3
DA:29,3
DA:30,3
DA:31,3
DA:33,3
DA:34,3
DA:36,3
DA:37,3
DA:38,3
DA:40,3
DA:41,3
DA:42,3
DA:43,0
DA:44,0
DA:46,0
DA:48,3
DA:50,0
DA:51,0
DA:52,0
DA:54,0
DA:56,0
DA:58,0
DA:59,0
DA:60,0
DA:61,0
DA:63,4
DA:64,4
DA:65,4
DA:69,0
DA:70,0
DA:71,0
DA:79,1
DA:80,1
DA:81,1
DA:82,1
DA:83,1
DA:84,1
DA:85,1
BRF:0
BRH:0
LF:49
LH:34
end_of_record
SF:C:\github\mcpx\src\tools\node.rs
FN:11,_RNvMNtNtCs8vv7mWF5ug8_2vx5tools4nodeNtB2_8NodeTool3new
FN:66,_RNvXs0_NtNtCs8vv7mWF5ug8_2vx5tools4nodeNtB5_8NodeToolNtNtCsaDtq73Zt8sT_4core7default7Default7default
FN:21,_RNvXs_NtNtCs8vv7mWF5ug8_2vx5tools4nodeNtB4_8NodeToolNtNtB8_4tool4Tool11description
FN:33,_RNvXs_NtNtCs8vv7mWF5ug8_2vx5tools4nodeNtB4_8NodeToolNtNtB8_4tool4Tool11get_version
FN:29,_RNvXs_NtNtCs8vv7mWF5ug8_2vx5tools4nodeNtB4_8NodeToolNtNtB8_4tool4Tool12is_installed
FN:47,_RNvXs_NtNtCs8vv7mWF5ug8_2vx5tools4nodeNtB4_8NodeToolNtNtB8_4tool4Tool19get_executable_path
FN:60,_RNvXs_NtNtCs8vv7mWF5ug8_2vx5tools4nodeNtB4_8NodeToolNtNtB8_4tool4Tool21supports_auto_install
FN:17,_RNvXs_NtNtCs8vv7mWF5ug8_2vx5tools4nodeNtB4_8NodeToolNtNtB8_4tool4Tool4name
FN:55,_RNvXs_NtNtCs8vv7mWF5ug8_2vx5tools4nodeNtB4_8NodeToolNtNtB8_4tool4Tool7execute
FN:25,_RNvXs_NtNtCs8vv7mWF5ug8_2vx5tools4nodeNtB4_8NodeToolNtNtB8_4tool4Tool8homepage
FN:66,_RNvXs0_NtNtCse561JCZuupE_2vx5tools4nodeNtB5_8NodeToolNtNtCsaDtq73Zt8sT_4core7default7Default7default
FN:76,_RNvNtNtNtCse561JCZuupE_2vx5tools4node5testss_23test_node_tool_creation
FN:11,_RNvMNtNtCse561JCZuupE_2vx5tools4nodeNtB2_8NodeTool3new
FN:21,_RNvXs_NtNtCse561JCZuupE_2vx5tools4nodeNtB4_8NodeToolNtNtB8_4tool4Tool11description
FN:33,_RNvXs_NtNtCse561JCZuupE_2vx5tools4nodeNtB4_8NodeToolNtNtB8_4tool4Tool11get_version
FN:29,_RNvXs_NtNtCse561JCZuupE_2vx5tools4nodeNtB4_8NodeToolNtNtB8_4tool4Tool12is_installed
FN:47,_RNvXs_NtNtCse561JCZuupE_2vx5tools4nodeNtB4_8NodeToolNtNtB8_4tool4Tool19get_executable_path
FN:60,_RNvXs_NtNtCse561JCZuupE_2vx5tools4nodeNtB4_8NodeToolNtNtB8_4tool4Tool21supports_auto_install
FN:17,_RNvXs_NtNtCse561JCZuupE_2vx5tools4nodeNtB4_8NodeToolNtNtB8_4tool4Tool4name
FN:55,_RNvXs_NtNtCse561JCZuupE_2vx5tools4nodeNtB4_8NodeToolNtNtB8_4tool4Tool7execute
FN:25,_RNvXs_NtNtCse561JCZuupE_2vx5tools4nodeNtB4_8NodeToolNtNtB8_4tool4Tool8homepage
FNDA:8,_RNvMNtNtCs8vv7mWF5ug8_2vx5tools4nodeNtB2_8NodeTool3new
FNDA:0,_RNvXs0_NtNtCs8vv7mWF5ug8_2vx5tools4nodeNtB5_8NodeToolNtNtCsaDtq73Zt8sT_4core7default7Default7default
FNDA:3,_RNvXs_NtNtCs8vv7mWF5ug8_2vx5tools4nodeNtB4_8NodeToolNtNtB8_4tool4Tool11description
FNDA:5,_RNvXs_NtNtCs8vv7mWF5ug8_2vx5tools4nodeNtB4_8NodeToolNtNtB8_4tool4Tool11get_version
FNDA:5,_RNvXs_NtNtCs8vv7mWF5ug8_2vx5tools4nodeNtB4_8NodeToolNtNtB8_4tool4Tool12is_installed
FNDA:0,_RNvXs_NtNtCs8vv7mWF5ug8_2vx5tools4nodeNtB4_8NodeToolNtNtB8_4tool4Tool19get_executable_path
FNDA:5,_RNvXs_NtNtCs8vv7mWF5ug8_2vx5tools4nodeNtB4_8NodeToolNtNtB8_4tool4Tool21supports_auto_install
FNDA:11,_RNvXs_NtNtCs8vv7mWF5ug8_2vx5tools4nodeNtB4_8NodeToolNtNtB8_4tool4Tool4name
FNDA:0,_RNvXs_NtNtCs8vv7mWF5ug8_2vx5tools4nodeNtB4_8NodeToolNtNtB8_4tool4Tool7execute
FNDA:3,_RNvXs_NtNtCs8vv7mWF5ug8_2vx5tools4nodeNtB4_8NodeToolNtNtB8_4tool4Tool8homepage
FNDA:0,_RNvXs0_NtNtCse561JCZuupE_2vx5tools4nodeNtB5_8NodeToolNtNtCsaDtq73Zt8sT_4core7default7Default7default
FNDA:1,_RNvNtNtNtCse561JCZuupE_2vx5tools4node5testss_23test_node_tool_creation
FNDA:10,_RNvMNtNtCse561JCZuupE_2vx5tools4nodeNtB2_8NodeTool3new
FNDA:1,_RNvXs_NtNtCse561JCZuupE_2vx5tools4nodeNtB4_8NodeToolNtNtB8_4tool4Tool11description
FNDA:0,_RNvXs_NtNtCse561JCZuupE_2vx5tools4nodeNtB4_8NodeToolNtNtB8_4tool4Tool11get_version
FNDA:0,_RNvXs_NtNtCse561JCZuupE_2vx5tools4nodeNtB4_8NodeToolNtNtB8_4tool4Tool12is_installed
FNDA:0,_RNvXs_NtNtCse561JCZuupE_2vx5tools4nodeNtB4_8NodeToolNtNtB8_4tool4Tool19get_executable_path
FNDA:1,_RNvXs_NtNtCse561JCZuupE_2vx5tools4nodeNtB4_8NodeToolNtNtB8_4tool4Tool21supports_auto_install
FNDA:10,_RNvXs_NtNtCse561JCZuupE_2vx5tools4nodeNtB4_8NodeToolNtNtB8_4tool4Tool4name
FNDA:0,_RNvXs_NtNtCse561JCZuupE_2vx5tools4nodeNtB4_8NodeToolNtNtB8_4tool4Tool7execute
FNDA:1,_RNvXs_NtNtCse561JCZuupE_2vx5tools4nodeNtB4_8NodeToolNtNtB8_4tool4Tool8homepage
FNF:11
FNH:8
DA:11,18
DA:12,18
DA:13,18
DA:17,21
DA:18,21
DA:19,21
DA:21,4
DA:22,4
DA:23,4
DA:25,4
DA:26,4
DA:27,4
DA:29,5
DA:30,5
DA:31,5
DA:33,5
DA:34,5
DA:36,5
DA:37,5
DA:38,5
DA:39,5
DA:40,5
DA:41,5
DA:43,0
DA:45,5
DA:47,0
DA:48,0
DA:49,0
DA:51,0
DA:53,0
DA:55,0
DA:56,0
DA:57,0
DA:58,0
DA:60,6
DA:61,6
DA:62,6
DA:66,0
DA:67,0
DA:68,0
DA:76,1
DA:77,1
DA:78,1
DA:79,1
DA:80,1
DA:81,1
DA:82,1
BRF:0
BRH:0
LF:47
LH:34
end_of_record
SF:C:\github\mcpx\src\tools\rust.rs
FN:11,_RNvMNtNtCs8vv7mWF5ug8_2vx5tools4rustNtB2_9CargoTool3new
FN:71,_RNvMs0_NtNtCs8vv7mWF5ug8_2vx5tools4rustNtB5_9RustcTool3new
FN:81,_RNvXs1_NtNtCs8vv7mWF5ug8_2vx5tools4rustNtB5_9RustcToolNtNtB9_4tool4Tool11description
FN:93,_RNvXs1_NtNtCs8vv7mWF5ug8_2vx5tools4rustNtB5_9RustcToolNtNtB9_4tool4Tool11get_version
FN:89,_RNvXs1_NtNtCs8vv7mWF5ug8_2vx5tools4rustNtB5_9RustcToolNtNtB9_4tool4Tool12is_installed
FN:109,_RNvXs1_NtNtCs8vv7mWF5ug8_2vx5tools4rustNtB5_9RustcToolNtNtB9_4tool4Tool19get_executable_path
FN:122,_RNvXs1_NtNtCs8vv7mWF5ug8_2vx5tools4rustNtB5_9RustcToolNtNtB9_4tool4Tool21supports_auto_install
FN:77,_RNvXs1_NtNtCs8vv7mWF5ug8_2vx5tools4rustNtB5_9RustcToolNtNtB9_4tool4Tool4name
FN:117,_RNvXs1_NtNtCs8vv7mWF5ug8_2vx5tools4rustNtB5_9RustcToolNtNtB9_4tool4Tool7execute
FN:85,_RNvXs1_NtNtCs8vv7mWF5ug8_2vx5tools4rustNtB5_9RustcToolNtNtB9_4tool4Tool8homepage
FN:128,_RNvXs2_NtNtCs8vv7mWF5ug8_2vx5tools4rustNtB5_9CargoToolNtNtCsaDtq73Zt8sT_4core7default7Default7default
FN:134,_RNvXs3_NtNtCs8vv7mWF5ug8_2vx5tools4rustNtB5_9RustcToolNtNtCsaDtq73Zt8sT_4core7default7Default7default
FN:21,_RNvXs_NtNtCs8vv7mWF5ug8_2vx5tools4rustNtB4_9CargoToolNtNtB8_4tool4Tool11description
FN:33,_RNvXs_NtNtCs8vv7mWF5ug8_2vx5tools4rustNtB4_9CargoToolNtNtB8_4tool4Tool11get_version
FN:29,_RNvXs_NtNtCs8vv7mWF5ug8_2vx5tools4rustNtB4_9CargoToolNtNtB8_4tool4Tool12is_installed
FN:49,_RNvXs_NtNtCs8vv7mWF5ug8_2vx5tools4rustNtB4_9CargoToolNtNtB8_4tool4Tool19get_executable_path
FN:62,_RNvXs_NtNtCs8vv7mWF5ug8_2vx5tools4rustNtB4_9CargoToolNtNtB8_4tool4Tool21supports_auto_install
FN:17,_RNvXs_NtNtCs8vv7mWF5ug8_2vx5tools4rustNtB4_9CargoToolNtNtB8_4tool4Tool4name
FN:57,_RNvXs_NtNtCs8vv7mWF5ug8_2vx5tools4rustNtB4_9CargoToolNtNtB8_4tool4Tool7execute
FN:25,_RNvXs_NtNtCs8vv7mWF5ug8_2vx5tools4rustNtB4_9CargoToolNtNtB8_4tool4Tool8homepage
FN:128,_RNvXs2_NtNtCse561JCZuupE_2vx5tools4rustNtB5_9CargoToolNtNtCsaDtq73Zt8sT_4core7default7Default7default
FN:134,_RNvXs3_NtNtCse561JCZuupE_2vx5tools4rustNtB5_9RustcToolNtNtCsaDtq73Zt8sT_4core7default7Default7default
FN:144,_RNvNtNtNtCse561JCZuupE_2vx5tools4rust5testss_24test_cargo_tool_creation
FN:153,_RNvNtNtNtCse561JCZuupE_2vx5tools4rust5testss_24test_rustc_tool_creation
FN:11,_RNvMNtNtCse561JCZuupE_2vx5tools4rustNtB2_9CargoTool3new
FN:71,_RNvMs0_NtNtCse561JCZuupE_2vx5tools4rustNtB5_9RustcTool3new
FN:81,_RNvXs1_NtNtCse561JCZuupE_2vx5tools4rustNtB5_9RustcToolNtNtB9_4tool4Tool11description
FN:93,_RNvXs1_NtNtCse561JCZuupE_2vx5tools4rustNtB5_9RustcToolNtNtB9_4tool4Tool11get_version
FN:89,_RNvXs1_NtNtCse561JCZuupE_2vx5tools4rustNtB5_9RustcToolNtNtB9_4tool4Tool12is_installed
FN:109,_RNvXs1_NtNtCse561JCZuupE_2vx5tools4rustNtB5_9RustcToolNtNtB9_4tool4Tool19get_executable_path
FN:122,_RNvXs1_NtNtCse561JCZuupE_2vx5tools4rustNtB5_9RustcToolNtNtB9_4tool4Tool21supports_auto_install
FN:77,_RNvXs1_NtNtCse561JCZuupE_2vx5tools4rustNtB5_9RustcToolNtNtB9_4tool4Tool4name
FN:117,_RNvXs1_NtNtCse561JCZuupE_2vx5tools4rustNtB5_9RustcToolNtNtB9_4tool4Tool7execute
FN:85,_RNvXs1_NtNtCse561JCZuupE_2vx5tools4rustNtB5_9RustcToolNtNtB9_4tool4Tool8homepage
FN:21,_RNvXs_NtNtCse561JCZuupE_2vx5tools4rustNtB4_9CargoToolNtNtB8_4tool4Tool11description
FN:33,_RNvXs_NtNtCse561JCZuupE_2vx5tools4rustNtB4_9CargoToolNtNtB8_4tool4Tool11get_version
FN:29,_RNvXs_NtNtCse561JCZuupE_2vx5tools4rustNtB4_9CargoToolNtNtB8_4tool4Tool12is_installed
FN:49,_RNvXs_NtNtCse561JCZuupE_2vx5tools4rustNtB4_9CargoToolNtNtB8_4tool4Tool19get_executable_path
FN:62,_RNvXs_NtNtCse561JCZuupE_2vx5tools4rustNtB4_9CargoToolNtNtB8_4tool4Tool21supports_auto_install
FN:17,_RNvXs_NtNtCse561JCZuupE_2vx5tools4rustNtB4_9CargoToolNtNtB8_4tool4Tool4name
FN:57,_RNvXs_NtNtCse561JCZuupE_2vx5tools4rustNtB4_9CargoToolNtNtB8_4tool4Tool7execute
FN:25,_RNvXs_NtNtCse561JCZuupE_2vx5tools4rustNtB4_9CargoToolNtNtB8_4tool4Tool8homepage
FNDA:8,_RNvMNtNtCs8vv7mWF5ug8_2vx5tools4rustNtB2_9CargoTool3new
FNDA:8,_RNvMs0_NtNtCs8vv7mWF5ug8_2vx5tools4rustNtB5_9RustcTool3new
FNDA:2,_RNvXs1_NtNtCs8vv7mWF5ug8_2vx5tools4rustNtB5_9RustcToolNtNtB9_4tool4Tool11description
FNDA:2,_RNvXs1_NtNtCs8vv7mWF5ug8_2vx5tools4rustNtB5_9RustcToolNtNtB9_4tool4Tool11get_version
FNDA:2,_RNvXs1_NtNtCs8vv7mWF5ug8_2vx5tools4rustNtB5_9RustcToolNtNtB9_4tool4Tool12is_installed
FNDA:0,_RNvXs1_NtNtCs8vv7mWF5ug8_2vx5tools4rustNtB5_9RustcToolNtNtB9_4tool4Tool19get_executable_path
FNDA:2,_RNvXs1_NtNtCs8vv7mWF5ug8_2vx5tools4rustNtB5_9RustcToolNtNtB9_4tool4Tool21supports_auto_install
FNDA:10,_RNvXs1_NtNtCs8vv7mWF5ug8_2vx5tools4rustNtB5_9RustcToolNtNtB9_4tool4Tool4name
FNDA:0,_RNvXs1_NtNtCs8vv7mWF5ug8_2vx5tools4rustNtB5_9RustcToolNtNtB9_4tool4Tool7execute
FNDA:2,_RNvXs1_NtNtCs8vv7mWF5ug8_2vx5tools4rustNtB5_9RustcToolNtNtB9_4tool4Tool8homepage
FNDA:0,_RNvXs2_NtNtCs8vv7mWF5ug8_2vx5tools4rustNtB5_9CargoToolNtNtCsaDtq73Zt8sT_4core7default7Default7default
FNDA:0,_RNvXs3_NtNtCs8vv7mWF5ug8_2vx5tools4rustNtB5_9RustcToolNtNtCsaDtq73Zt8sT_4core7default7Default7default
FNDA:2,_RNvXs_NtNtCs8vv7mWF5ug8_2vx5tools4rustNtB4_9CargoToolNtNtB8_4tool4Tool11description
FNDA:2,_RNvXs_NtNtCs8vv7mWF5ug8_2vx5tools4rustNtB4_9CargoToolNtNtB8_4tool4Tool11get_version
FNDA:2,_RNvXs_NtNtCs8vv7mWF5ug8_2vx5tools4rustNtB4_9CargoToolNtNtB8_4tool4Tool12is_installed
FNDA:0,_RNvXs_NtNtCs8vv7mWF5ug8_2vx5tools4rustNtB4_9CargoToolNtNtB8_4tool4Tool19get_executable_path
FNDA:2,_RNvXs_NtNtCs8vv7mWF5ug8_2vx5tools4rustNtB4_9CargoToolNtNtB8_4tool4Tool21supports_auto_install
FNDA:10,_RNvXs_NtNtCs8vv7mWF5ug8_2vx5tools4rustNtB4_9CargoToolNtNtB8_4tool4Tool4name
FNDA:0,_RNvXs_NtNtCs8vv7mWF5ug8_2vx5tools4rustNtB4_9CargoToolNtNtB8_4tool4Tool7execute
FNDA:2,_RNvXs_NtNtCs8vv7mWF5ug8_2vx5tools4rustNtB4_9CargoToolNtNtB8_4tool4Tool8homepage
FNDA:0,_RNvXs2_NtNtCse561JCZuupE_2vx5tools4rustNtB5_9CargoToolNtNtCsaDtq73Zt8sT_4core7default7Default7default
FNDA:0,_RNvXs3_NtNtCse561JCZuupE_2vx5tools4rustNtB5_9RustcToolNtNtCsaDtq73Zt8sT_4core7default7Default7default
FNDA:1,_RNvNtNtNtCse561JCZuupE_2vx5tools4rust5testss_24test_cargo_tool_creation
FNDA:1,_RNvNtNtNtCse561JCZuupE_2vx5tools4rust5testss_24test_rustc_tool_creation
FNDA:10,_RNvMNtNtCse561JCZuupE_2vx5tools4rustNtB2_9CargoTool3new
FNDA:10,_RNvMs0_NtNtCse561JCZuupE_2vx5tools4rustNtB5_9RustcTool3new
FNDA:1,_RNvXs1_NtNtCse561JCZuupE_2vx5tools4rustNtB5_9RustcToolNtNtB9_4tool4Tool11description
FNDA:0,_RNvXs1_NtNtCse561JCZuupE_2vx5tools4rustNtB5_9RustcToolNtNtB9_4tool4Tool11get_version
FNDA:0,_RNvXs1_NtNtCse561JCZuupE_2vx5tools4rustNtB5_9RustcToolNtNtB9_4tool4Tool12is_installed
FNDA:0,_RNvXs1_NtNtCse561JCZuupE_2vx5tools4rustNtB5_9RustcToolNtNtB9_4tool4Tool19get_executable_path
FNDA:1,_RNvXs1_NtNtCse561JCZuupE_2vx5tools4rustNtB5_9RustcToolNtNtB9_4tool4Tool21supports_auto_install
FNDA:10,_RNvXs1_NtNtCse561JCZuupE_2vx5tools4rustNtB5_9RustcToolNtNtB9_4tool4Tool4name
FNDA:0,_RNvXs1_NtNtCse561JCZuupE_2vx5tools4rustNtB5_9RustcToolNtNtB9_4tool4Tool7execute
FNDA:1,_RNvXs1_NtNtCse561JCZuupE_2vx5tools4rustNtB5_9RustcToolNtNtB9_4tool4Tool8homepage
FNDA:1,_RNvXs_NtNtCse561JCZuupE_2vx5tools4rustNtB4_9CargoToolNtNtB8_4tool4Tool11description
FNDA:0,_RNvXs_NtNtCse561JCZuupE_2vx5tools4rustNtB4_9CargoToolNtNtB8_4tool4Tool11get_version
FNDA:0,_RNvXs_NtNtCse561JCZuupE_2vx5tools4rustNtB4_9CargoToolNtNtB8_4tool4Tool12is_installed
FNDA:0,_RNvXs_NtNtCse561JCZuupE_2vx5tools4rustNtB4_9CargoToolNtNtB8_4tool4Tool19get_executable_path
FNDA:1,_RNvXs_NtNtCse561JCZuupE_2vx5tools4rustNtB4_9CargoToolNtNtB8_4tool4Tool21supports_auto_install
FNDA:10,_RNvXs_NtNtCse561JCZuupE_2vx5tools4rustNtB4_9CargoToolNtNtB8_4tool4Tool4name
FNDA:0,_RNvXs_NtNtCse561JCZuupE_2vx5tools4rustNtB4_9CargoToolNtNtB8_4tool4Tool7execute
FNDA:1,_RNvXs_NtNtCse561JCZuupE_2vx5tools4rustNtB4_9CargoToolNtNtB8_4tool4Tool8homepage
FNF:22
FNH:16
DA:11,18
DA:12,18
DA:13,18
DA:17,20
DA:18,20
DA:19,20
DA:21,3
DA:22,3
DA:23,3
DA:25,3
DA:26,3
DA:27,3
DA:29,2
DA:30,2
DA:31,2
DA:33,2
DA:34,2
DA:36,2
DA:37,2
DA:38,2
DA:40,2
DA:41,2
DA:42,0
DA:43,0
DA:45,0
DA:47,2
DA:49,0
DA:50,0
DA:51,0
DA:53,0
DA:55,0
DA:57,0
DA:58,0
DA:59,0
DA:60,0
DA:62,3
DA:63,3
DA:64,3
DA:71,18
DA:72,18
DA:73,18
DA:77,20
DA:78,20
DA:79,20
DA:81,3
DA:82,3
DA:83,3
DA:85,3
DA:86,3
DA:87,3
DA:89,2
DA:90,2
DA:91,2
DA:93,2
DA:94,2
DA:96,2
DA:97,2
DA:98,2
DA:100,2
DA:101,2
DA:102,0
DA:103,0
DA:105,0
DA:107,2
DA:109,0
DA:110,0
DA:111,0
DA:113,0
DA:115,0
DA:117,0
DA:118,0
DA:119,0
DA:120,0
DA:122,3
DA:123,3
DA:124,3
DA:128,0
DA:129,0
DA:130,0
DA:134,0
DA:135,0
DA:136,0
DA:144,1
DA:145,1
DA:146,1
DA:147,1
DA:148,1
DA:149,1
DA:150,1
DA:153,1
DA:154,1
DA:155,1
DA:156,1
DA:157,1
DA:158,1
DA:159,1
BRF:0
BRH:0
LF:96
LH:66
end_of_record
SF:C:\github\mcpx\src\tools\uv.rs
FN:11,_RNvMNtNtCs8vv7mWF5ug8_2vx5tools2uvNtB2_6UvTool3new
FN:68,_RNvXs0_NtNtCs8vv7mWF5ug8_2vx5tools2uvNtB5_6UvToolNtNtCsaDtq73Zt8sT_4core7default7Default7default
FN:21,_RNvXs_NtNtCs8vv7mWF5ug8_2vx5tools2uvNtB4_6UvToolNtNtB8_4tool4Tool11description
FN:33,_RNvXs_NtNtCs8vv7mWF5ug8_2vx5tools2uvNtB4_6UvToolNtNtB8_4tool4Tool11get_version
FN:29,_RNvXs_NtNtCs8vv7mWF5ug8_2vx5tools2uvNtB4_6UvToolNtNtB8_4tool4Tool12is_installed
FN:49,_RNvXs_NtNtCs8vv7mWF5ug8_2vx5tools2uvNtB4_6UvToolNtNtB8_4tool4Tool19get_executable_path
FN:62,_RNvXs_NtNtCs8vv7mWF5ug8_2vx5tools2uvNtB4_6UvToolNtNtB8_4tool4Tool21supports_auto_install
FN:17,_RNvXs_NtNtCs8vv7mWF5ug8_2vx5tools2uvNtB4_6UvToolNtNtB8_4tool4Tool4name
FN:57,_RNvXs_NtNtCs8vv7mWF5ug8_2vx5tools2uvNtB4_6UvToolNtNtB8_4tool4Tool7execute
FN:25,_RNvXs_NtNtCs8vv7mWF5ug8_2vx5tools2uvNtB4_6UvToolNtNtB8_4tool4Tool8homepage
FN:68,_RNvXs0_NtNtCse561JCZuupE_2vx5tools2uvNtB5_6UvToolNtNtCsaDtq73Zt8sT_4core7default7Default7default
FN:87,_RNvNtNtNtCse561JCZuupE_2vx5tools2uv5testss_20test_executable_path
FN:78,_RNvNtNtNtCse561JCZuupE_2vx5tools2uv5testss_21test_uv_tool_creation
FN:11,_RNvMNtNtCse561JCZuupE_2vx5tools2uvNtB2_6UvTool3new
FN:21,_RNvXs_NtNtCse561JCZuupE_2vx5tools2uvNtB4_6UvToolNtNtB8_4tool4Tool11description
FN:33,_RNvXs_NtNtCse561JCZuupE_2vx5tools2uvNtB4_6UvToolNtNtB8_4tool4Tool11get_version
FN:29,_RNvXs_NtNtCse561JCZuupE_2vx5tools2uvNtB4_6UvToolNtNtB8_4tool4Tool12is_installed
FN:49,_RNvXs_NtNtCse561JCZuupE_2vx5tools2uvNtB4_6UvToolNtNtB8_4tool4Tool19get_executable_path
FN:62,_RNvXs_NtNtCse561JCZuupE_2vx5tools2uvNtB4_6UvToolNtNtB8_4tool4Tool21supports_auto_install
FN:17,_RNvXs_NtNtCse561JCZuupE_2vx5tools2uvNtB4_6UvToolNtNtB8_4tool4Tool4name
FN:57,_RNvXs_NtNtCse561JCZuupE_2vx5tools2uvNtB4_6UvToolNtNtB8_4tool4Tool7execute
FN:25,_RNvXs_NtNtCse561JCZuupE_2vx5tools2uvNtB4_6UvToolNtNtB8_4tool4Tool8homepage
FNDA:8,_RNvMNtNtCs8vv7mWF5ug8_2vx5tools2uvNtB2_6UvTool3new
FNDA:0,_RNvXs0_NtNtCs8vv7mWF5ug8_2vx5tools2uvNtB5_6UvToolNtNtCsaDtq73Zt8sT_4core7default7Default7default
FNDA:4,_RNvXs_NtNtCs8vv7mWF5ug8_2vx5tools2uvNtB4_6UvToolNtNtB8_4tool4Tool11description
FNDA:6,_RNvXs_NtNtCs8vv7mWF5ug8_2vx5tools2uvNtB4_6UvToolNtNtB8_4tool4Tool11get_version
FNDA:6,_RNvXs_NtNtCs8vv7mWF5ug8_2vx5tools2uvNtB4_6UvToolNtNtB8_4tool4Tool12is_installed
FNDA:0,_RNvXs_NtNtCs8vv7mWF5ug8_2vx5tools2uvNtB4_6UvToolNtNtB8_4tool4Tool19get_executable_path
FNDA:6,_RNvXs_NtNtCs8vv7mWF5ug8_2vx5tools2uvNtB4_6UvToolNtNtB8_4tool4Tool21supports_auto_install
FNDA:12,_RNvXs_NtNtCs8vv7mWF5ug8_2vx5tools2uvNtB4_6UvToolNtNtB8_4tool4Tool4name
FNDA:0,_RNvXs_NtNtCs8vv7mWF5ug8_2vx5tools2uvNtB4_6UvToolNtNtB8_4tool4Tool7execute
FNDA:4,_RNvXs_NtNtCs8vv7mWF5ug8_2vx5tools2uvNtB4_6UvToolNtNtB8_4tool4Tool8homepage
FNDA:0,_RNvXs0_NtNtCse561JCZuupE_2vx5tools2uvNtB5_6UvToolNtNtCsaDtq73Zt8sT_4core7default7Default7default
FNDA:1,_RNvNtNtNtCse561JCZuupE_2vx5tools2uv5testss_20test_executable_path
FNDA:1,_RNvNtNtNtCse561JCZuupE_2vx5tools2uv5testss_21test_uv_tool_creation
FNDA:11,_RNvMNtNtCse561JCZuupE_2vx5tools2uvNtB2_6UvTool3new
FNDA:3,_RNvXs_NtNtCse561JCZuupE_2vx5tools2uvNtB4_6UvToolNtNtB8_4tool4Tool11description
FNDA:3,_RNvXs_NtNtCse561JCZuupE_2vx5tools2uvNtB4_6UvToolNtNtB8_4tool4Tool11get_version
FNDA:3,_RNvXs_NtNtCse561JCZuupE_2vx5tools2uvNtB4_6UvToolNtNtB8_4tool4Tool12is_installed
FNDA:1,_RNvXs_NtNtCse561JCZuupE_2vx5tools2uvNtB4_6UvToolNtNtB8_4tool4Tool19get_executable_path
FNDA:4,_RNvXs_NtNtCse561JCZuupE_2vx5tools2uvNtB4_6UvToolNtNtB8_4tool4Tool21supports_auto_install
FNDA:13,_RNvXs_NtNtCse561JCZuupE_2vx5tools2uvNtB4_6UvToolNtNtB8_4tool4Tool4name
FNDA:0,_RNvXs_NtNtCse561JCZuupE_2vx5tools2uvNtB4_6UvToolNtNtB8_4tool4Tool7execute
FNDA:3,_RNvXs_NtNtCse561JCZuupE_2vx5tools2uvNtB4_6UvToolNtNtB8_4tool4Tool8homepage
FNF:12
FNH:10
DA:11,19
DA:12,19
DA:13,19
DA:17,25
DA:18,25
DA:19,25
DA:21,7
DA:22,7
DA:23,7
DA:25,7
DA:26,7
DA:27,7
DA:29,9
DA:30,9
DA:31,9
DA:33,9
DA:34,9
DA:36,9
DA:37,9
DA:38,9
DA:40,9
DA:41,9
DA:42,0
DA:43,0
DA:45,0
DA:47,9
DA:49,1
DA:50,1
DA:51,1
DA:53,0
DA:55,1
DA:57,0
DA:58,0
DA:59,0
DA:60,0
DA:62,10
DA:63,10
DA:64,10
DA:68,0
DA:69,0
DA:70,0
DA:78,1
DA:79,1
DA:80,1
DA:81,1
DA:82,1
DA:83,1
DA:84,1
DA:87,1
DA:88,1
DA:89,1
DA:90,1
DA:91,1
DA:92,1
DA:93,1
DA:95,0
DA:97,1
BRF:0
BRH:0
LF:57
LH:45
end_of_record
SF:C:\github\mcpx\src\tracing_setup.rs
FN:118,_RINvNtCse561JCZuupE_2vx13tracing_setup21suspend_progress_barsppEB4_
FN:79,_RNCNCNCNvNtNtCse561JCZuupE_2vx3cli5fetch6handle000Bb_
FN:67,_RNCNCNCNvNtNtCse561JCZuupE_2vx3cli5fetch6handle00s_0Bb_
FN:79,_RNCNCNCNvNtNtCse561JCZuupE_2vx3cli7install6handle00s_0Bb_
FN:67,_RNCNCNvNtNtCse561JCZuupE_2vx3cli6update11update_tool0s0_0B9_
FN:79,_RNCNCNvNtNtCse561JCZuupE_2vx3cli6update11update_tool0s1_0B9_
FN:67,_RNCNCNvNtNtCse561JCZuupE_2vx3cli6update11update_tool0s2_0B9_
FN:47,_RNvNtCse561JCZuupE_2vx13tracing_setup19get_indicatif_layer
FN:96,_RNvNtCse561JCZuupE_2vx13tracing_setup26create_manual_progress_bar
FN:19,_RNCNvNtCse561JCZuupE_2vx13tracing_setup12init_tracing0B5_
FN:15,_RNvNtCse561JCZuupE_2vx13tracing_setup12init_tracing
FN:137,_RNCNCNCNvNtNtCse561JCZuupE_2vx13tracing_setup5testss_24test_progress_span_macro000Bb_
FN:156,_RNCNCNCNvNtNtCse561JCZuupE_2vx13tracing_setup5testss_26test_progress_events_macro000Bb_
FN:67,_RNCNCNvNtNtCse561JCZuupE_2vx13tracing_setup5testss_24test_progress_span_macro00B9_
FN:79,_RNCNCNvNtNtCse561JCZuupE_2vx13tracing_setup5testss_26test_progress_events_macro00B9_
FN:134,_RNCNvNtNtCse561JCZuupE_2vx13tracing_setup5testss_24test_progress_span_macro0B7_
FN:149,_RNCNvNtNtCse561JCZuupE_2vx13tracing_setup5testss_26test_progress_events_macro0B7_
FN:134,_RNvNtNtCse561JCZuupE_2vx13tracing_setup5testss_24test_progress_span_macro
FN:149,_RNvNtNtCse561JCZuupE_2vx13tracing_setup5testss_26test_progress_events_macro
FN:79,_RNCNCNCNvNtNtCs8vv7mWF5ug8_2vx3cli5fetch6handle000CsgEqbR8KZSOZ_2vx
FN:67,_RNCNCNCNvNtNtCs8vv7mWF5ug8_2vx3cli5fetch6handle00s_0CsgEqbR8KZSOZ_2vx
FN:79,_RNCNCNCNvNtNtCs8vv7mWF5ug8_2vx3cli7install6handle00s_0CsgEqbR8KZSOZ_2vx
FN:67,_RNCNCNvNtNtCs8vv7mWF5ug8_2vx3cli6update11update_tool0s0_0CsgEqbR8KZSOZ_2vx
FN:79,_RNCNCNvNtNtCs8vv7mWF5ug8_2vx3cli6update11update_tool0s1_0CsgEqbR8KZSOZ_2vx
FN:67,_RNCNCNvNtNtCs8vv7mWF5ug8_2vx3cli6update11update_tool0s2_0CsgEqbR8KZSOZ_2vx
FN:19,_RNCNvNtCs8vv7mWF5ug8_2vx13tracing_setup12init_tracing0B5_
FN:15,_RNvNtCs8vv7mWF5ug8_2vx13tracing_setup12init_tracing
FN:47,_RNvNtCs8vv7mWF5ug8_2vx13tracing_setup19get_indicatif_layer
FN:96,_RNvNtCs8vv7mWF5ug8_2vx13tracing_setup26create_manual_progress_bar
FNDA:0,_RINvNtCse561JCZuupE_2vx13tracing_setup21suspend_progress_barsppEB4_
FNDA:0,_RNCNCNCNvNtNtCse561JCZuupE_2vx3cli5fetch6handle000Bb_
FNDA:0,_RNCNCNCNvNtNtCse561JCZuupE_2vx3cli5fetch6handle00s_0Bb_
FNDA:0,_RNCNCNCNvNtNtCse561JCZuupE_2vx3cli7install6handle00s_0Bb_
FNDA:0,_RNCNCNvNtNtCse561JCZuupE_2vx3cli6update11update_tool0s0_0B9_
FNDA:0,_RNCNCNvNtNtCse561JCZuupE_2vx3cli6update11update_tool0s1_0B9_
FNDA:0,_RNCNCNvNtNtCse561JCZuupE_2vx3cli6update11update_tool0s2_0B9_
FNDA:0,_RNvNtCse561JCZuupE_2vx13tracing_setup19get_indicatif_layer
FNDA:0,_RNvNtCse561JCZuupE_2vx13tracing_setup26create_manual_progress_bar
FNDA:1,_RNCNvNtCse561JCZuupE_2vx13tracing_setup12init_tracing0B5_
FNDA:2,_RNvNtCse561JCZuupE_2vx13tracing_setup12init_tracing
FNDA:1,_RNCNCNCNvNtNtCse561JCZuupE_2vx13tracing_setup5testss_24test_progress_span_macro000Bb_
FNDA:1,_RNCNCNCNvNtNtCse561JCZuupE_2vx13tracing_setup5testss_26test_progress_events_macro000Bb_
FNDA:1,_RNCNCNvNtNtCse561JCZuupE_2vx13tracing_setup5testss_24test_progress_span_macro00B9_
FNDA:1,_RNCNCNvNtNtCse561JCZuupE_2vx13tracing_setup5testss_26test_progress_events_macro00B9_
FNDA:1,_RNCNvNtNtCse561JCZuupE_2vx13tracing_setup5testss_24test_progress_span_macro0B7_
FNDA:1,_RNCNvNtNtCse561JCZuupE_2vx13tracing_setup5testss_26test_progress_events_macro0B7_
FNDA:1,_RNvNtNtCse561JCZuupE_2vx13tracing_setup5testss_24test_progress_span_macro
FNDA:1,_RNvNtNtCse561JCZuupE_2vx13tracing_setup5testss_26test_progress_events_macro
FNDA:0,_RNCNCNCNvNtNtCs8vv7mWF5ug8_2vx3cli5fetch6handle000CsgEqbR8KZSOZ_2vx
FNDA:0,_RNCNCNCNvNtNtCs8vv7mWF5ug8_2vx3cli5fetch6handle00s_0CsgEqbR8KZSOZ_2vx
FNDA:0,_RNCNCNCNvNtNtCs8vv7mWF5ug8_2vx3cli7install6handle00s_0CsgEqbR8KZSOZ_2vx
FNDA:0,_RNCNCNvNtNtCs8vv7mWF5ug8_2vx3cli6update11update_tool0s0_0CsgEqbR8KZSOZ_2vx
FNDA:0,_RNCNCNvNtNtCs8vv7mWF5ug8_2vx3cli6update11update_tool0s1_0CsgEqbR8KZSOZ_2vx
FNDA:0,_RNCNCNvNtNtCs8vv7mWF5ug8_2vx3cli6update11update_tool0s2_0CsgEqbR8KZSOZ_2vx
FNDA:0,_RNCNvNtCs8vv7mWF5ug8_2vx13tracing_setup12init_tracing0B5_
FNDA:0,_RNvNtCs8vv7mWF5ug8_2vx13tracing_setup12init_tracing
FNDA:0,_RNvNtCs8vv7mWF5ug8_2vx13tracing_setup19get_indicatif_layer
FNDA:0,_RNvNtCs8vv7mWF5ug8_2vx13tracing_setup26create_manual_progress_bar
FNF:13
FNH:10
DA:15,2
DA:19,2
DA:20,1
DA:25,1
DA:26,1
DA:28,0
DA:31,1
DA:32,1
DA:33,1
DA:34,1
DA:35,1
DA:36,1
DA:37,1
DA:38,1
DA:39,1
DA:40,1
DA:41,1
DA:42,2
DA:43,2
DA:47,0
DA:48,0
DA:49,0
DA:50,0
DA:67,1
DA:68,1
DA:69,1
DA:70,1
DA:79,1
DA:80,1
DA:81,1
DA:82,1
DA:83,1
DA:84,1
DA:86,0
DA:87,0
DA:88,0
DA:91,1
DA:96,0
DA:99,0
DA:100,0
DA:101,0
DA:102,0
DA:103,0
DA:104,0
DA:105,0
DA:106,0
DA:107,0
DA:110,0
DA:111,0
DA:112,0
DA:114,0
DA:115,0
DA:118,0
DA:119,0
DA:120,0
DA:121,0
DA:122,0
DA:123,0
DA:125,0
DA:127,0
DA:134,1
DA:135,1
DA:136,1
DA:137,1
DA:138,1
DA:139,1
DA:140,1
DA:141,1
DA:142,1
DA:143,1
DA:144,1
DA:145,1
DA:146,1
DA:149,1
DA:150,1
DA:151,1
DA:152,1
DA:153,1
DA:154,1
DA:155,1
DA:156,1
DA:157,1
DA:158,1
DA:159,1
DA:160,1
DA:161,1
DA:162,1
DA:163,1
DA:164,1
DA:165,1
DA:166,1
BRF:0
BRH:0
LF:128
LH:97
end_of_record
SF:C:\github\mcpx\src\ui.rs
FN:213,_RNvMNtCs8vv7mWF5ug8_2vx2uiNtB2_2UI10clear_line
FN:23,_RNvMNtCs8vv7mWF5ug8_2vx2uiNtB2_2UI10is_verbose
FN:289,_RNvMNtCs8vv7mWF5ug8_2vx2uiNtB2_2UI10show_stats
FN:231,_RNvMNtCs8vv7mWF5ug8_2vx2uiNtB2_2UI11format_size
FN:43,_RNvMNtCs8vv7mWF5ug8_2vx2uiNtB2_2UI11new_spinner
FN:18,_RNvMNtCs8vv7mWF5ug8_2vx2uiNtB2_2UI11set_verbose
FN:312,_RNvMNtCs8vv7mWF5ug8_2vx2uiNtB2_2UI12show_updates
FN:249,_RNvMNtCs8vv7mWF5ug8_2vx2uiNtB2_2UI15format_duration
FN:27,_RNvMNtCs8vv7mWF5ug8_2vx2uiNtB2_2UI16new_progress_bar
FN:261,_RNvMNtCs8vv7mWF5ug8_2vx2uiNtB2_2UI16show_tool_status
FN:276,_RNvMNtCs8vv7mWF5ug8_2vx2uiNtB2_2UI17show_package_list
FN:330,_RNvMNtCs8vv7mWF5ug8_2vx2uiNtB2_2UI22show_command_execution
FN:85,_RNvMNtCs8vv7mWF5ug8_2vx2uiNtB2_2UI4hint
FN:71,_RNvMNtCs8vv7mWF5ug8_2vx2uiNtB2_2UI4info
FN:78,_RNvMNtCs8vv7mWF5ug8_2vx2uiNtB2_2UI4step
FN:61,_RNvMNtCs8vv7mWF5ug8_2vx2uiNtB2_2UI5error
FN:219,_RNvMNtCs8vv7mWF5ug8_2vx2uiNtB2_2UI6header
FN:203,_RNvMNtCs8vv7mWF5ug8_2vx2uiNtB2_2UI6select
FN:90,_RNvMNtCs8vv7mWF5ug8_2vx2uiNtB2_2UI7confirm
FN:56,_RNvMNtCs8vv7mWF5ug8_2vx2uiNtB2_2UI7success
FN:66,_RNvMNtCs8vv7mWF5ug8_2vx2uiNtB2_2UI7warning
FN:226,_RNvMNtCs8vv7mWF5ug8_2vx2uiNtB2_2UI9separator
FN:34,_RNCNvMNtCs8vv7mWF5ug8_2vx2uiNtB4_2UI16new_progress_bar0B6_
FN:100,_RINvMNtCse561JCZuupE_2vx2uiNtB3_2UI13with_progresspppEB5_
FN:164,_RINvMNtCse561JCZuupE_2vx2uiNtB3_2UI22with_detailed_progresspppEB5_
FN:127,_RINvMNtCse561JCZuupE_2vx2uiNtB3_2UI22with_progress_messagespppEB5_
FN:104,_RNCINvMNtCse561JCZuupE_2vx2uiNtB5_2UI13with_progresspppE0B7_
FN:171,_RNCINvMNtCse561JCZuupE_2vx2uiNtB5_2UI22with_detailed_progresspppE0B7_
FN:136,_RNCINvMNtCse561JCZuupE_2vx2uiNtB5_2UI22with_progress_messagespppE0B7_
FN:34,_RNCNvMNtCse561JCZuupE_2vx2uiNtB4_2UI16new_progress_bar0B6_
FN:213,_RNvMNtCse561JCZuupE_2vx2uiNtB2_2UI10clear_line
FN:23,_RNvMNtCse561JCZuupE_2vx2uiNtB2_2UI10is_verbose
FN:289,_RNvMNtCse561JCZuupE_2vx2uiNtB2_2UI10show_stats
FN:231,_RNvMNtCse561JCZuupE_2vx2uiNtB2_2UI11format_size
FN:43,_RNvMNtCse561JCZuupE_2vx2uiNtB2_2UI11new_spinner
FN:18,_RNvMNtCse561JCZuupE_2vx2uiNtB2_2UI11set_verbose
FN:312,_RNvMNtCse561JCZuupE_2vx2uiNtB2_2UI12show_updates
FN:249,_RNvMNtCse561JCZuupE_2vx2uiNtB2_2UI15format_duration
FN:27,_RNvMNtCse561JCZuupE_2vx2uiNtB2_2UI16new_progress_bar
FN:261,_RNvMNtCse561JCZuupE_2vx2uiNtB2_2UI16show_tool_status
FN:276,_RNvMNtCse561JCZuupE_2vx2uiNtB2_2UI17show_package_list
FN:330,_RNvMNtCse561JCZuupE_2vx2uiNtB2_2UI22show_command_execution
FN:85,_RNvMNtCse561JCZuupE_2vx2uiNtB2_2UI4hint
FN:71,_RNvMNtCse561JCZuupE_2vx2uiNtB2_2UI4info
FN:78,_RNvMNtCse561JCZuupE_2vx2uiNtB2_2UI4step
FN:61,_RNvMNtCse561JCZuupE_2vx2uiNtB2_2UI5error
FN:219,_RNvMNtCse561JCZuupE_2vx2uiNtB2_2UI6header
FN:203,_RNvMNtCse561JCZuupE_2vx2uiNtB2_2UI6select
FN:90,_RNvMNtCse561JCZuupE_2vx2uiNtB2_2UI7confirm
FN:56,_RNvMNtCse561JCZuupE_2vx2uiNtB2_2UI7success
FN:66,_RNvMNtCse561JCZuupE_2vx2uiNtB2_2UI7warning
FN:226,_RNvMNtCse561JCZuupE_2vx2uiNtB2_2UI9separator
FNDA:0,_RNvMNtCs8vv7mWF5ug8_2vx2uiNtB2_2UI10clear_line
FNDA:0,_RNvMNtCs8vv7mWF5ug8_2vx2uiNtB2_2UI10is_verbose
FNDA:0,_RNvMNtCs8vv7mWF5ug8_2vx2uiNtB2_2UI10show_stats
FNDA:0,_RNvMNtCs8vv7mWF5ug8_2vx2uiNtB2_2UI11format_size
FNDA:0,_RNvMNtCs8vv7mWF5ug8_2vx2uiNtB2_2UI11new_spinner
FNDA:0,_RNvMNtCs8vv7mWF5ug8_2vx2uiNtB2_2UI11set_verbose
FNDA:0,_RNvMNtCs8vv7mWF5ug8_2vx2uiNtB2_2UI12show_updates
FNDA:0,_RNvMNtCs8vv7mWF5ug8_2vx2uiNtB2_2UI15format_duration
FNDA:0,_RNvMNtCs8vv7mWF5ug8_2vx2uiNtB2_2UI16new_progress_bar
FNDA:0,_RNvMNtCs8vv7mWF5ug8_2vx2uiNtB2_2UI16show_tool_status
FNDA:0,_RNvMNtCs8vv7mWF5ug8_2vx2uiNtB2_2UI17show_package_list
FNDA:0,_RNvMNtCs8vv7mWF5ug8_2vx2uiNtB2_2UI22show_command_execution
FNDA:0,_RNvMNtCs8vv7mWF5ug8_2vx2uiNtB2_2UI4hint
FNDA:0,_RNvMNtCs8vv7mWF5ug8_2vx2uiNtB2_2UI4info
FNDA:0,_RNvMNtCs8vv7mWF5ug8_2vx2uiNtB2_2UI4step
FNDA:0,_RNvMNtCs8vv7mWF5ug8_2vx2uiNtB2_2UI5error
FNDA:0,_RNvMNtCs8vv7mWF5ug8_2vx2uiNtB2_2UI6header
FNDA:0,_RNvMNtCs8vv7mWF5ug8_2vx2uiNtB2_2UI6select
FNDA:0,_RNvMNtCs8vv7mWF5ug8_2vx2uiNtB2_2UI7confirm
FNDA:0,_RNvMNtCs8vv7mWF5ug8_2vx2uiNtB2_2UI7success
FNDA:0,_RNvMNtCs8vv7mWF5ug8_2vx2uiNtB2_2UI7warning
FNDA:0,_RNvMNtCs8vv7mWF5ug8_2vx2uiNtB2_2UI9separator
FNDA:0,_RNCNvMNtCs8vv7mWF5ug8_2vx2uiNtB4_2UI16new_progress_bar0B6_
FNDA:0,_RINvMNtCse561JCZuupE_2vx2uiNtB3_2UI13with_progresspppEB5_
FNDA:0,_RINvMNtCse561JCZuupE_2vx2uiNtB3_2UI22with_detailed_progresspppEB5_
FNDA:0,_RINvMNtCse561JCZuupE_2vx2uiNtB3_2UI22with_progress_messagespppEB5_
FNDA:0,_RNCINvMNtCse561JCZuupE_2vx2uiNtB5_2UI13with_progresspppE0B7_
FNDA:0,_RNCINvMNtCse561JCZuupE_2vx2uiNtB5_2UI22with_detailed_progresspppE0B7_
FNDA:0,_RNCINvMNtCse561JCZuupE_2vx2uiNtB5_2UI22with_progress_messagespppE0B7_
FNDA:0,_RNCNvMNtCse561JCZuupE_2vx2uiNtB4_2UI16new_progress_bar0B6_
FNDA:0,_RNvMNtCse561JCZuupE_2vx2uiNtB2_2UI10clear_line
FNDA:0,_RNvMNtCse561JCZuupE_2vx2uiNtB2_2UI10is_verbose
FNDA:0,_RNvMNtCse561JCZuupE_2vx2uiNtB2_2UI10show_stats
FNDA:0,_RNvMNtCse561JCZuupE_2vx2uiNtB2_2UI11format_size
FNDA:0,_RNvMNtCse561JCZuupE_2vx2uiNtB2_2UI11new_spinner
FNDA:0,_RNvMNtCse561JCZuupE_2vx2uiNtB2_2UI11set_verbose
FNDA:0,_RNvMNtCse561JCZuupE_2vx2uiNtB2_2UI12show_updates
FNDA:0,_RNvMNtCse561JCZuupE_2vx2uiNtB2_2UI15format_duration
FNDA:0,_RNvMNtCse561JCZuupE_2vx2uiNtB2_2UI16new_progress_bar
FNDA:0,_RNvMNtCse561JCZuupE_2vx2uiNtB2_2UI16show_tool_status
FNDA:0,_RNvMNtCse561JCZuupE_2vx2uiNtB2_2UI17show_package_list
FNDA:0,_RNvMNtCse561JCZuupE_2vx2uiNtB2_2UI22show_command_execution
FNDA:0,_RNvMNtCse561JCZuupE_2vx2uiNtB2_2UI4hint
FNDA:0,_RNvMNtCse561JCZuupE_2vx2uiNtB2_2UI4info
FNDA:0,_RNvMNtCse561JCZuupE_2vx2uiNtB2_2UI4step
FNDA:0,_RNvMNtCse561JCZuupE_2vx2uiNtB2_2UI5error
FNDA:0,_RNvMNtCse561JCZuupE_2vx2uiNtB2_2UI6header
FNDA:0,_RNvMNtCse561JCZuupE_2vx2uiNtB2_2UI6select
FNDA:0,_RNvMNtCse561JCZuupE_2vx2uiNtB2_2UI7confirm
FNDA:0,_RNvMNtCse561JCZuupE_2vx2uiNtB2_2UI7success
FNDA:0,_RNvMNtCse561JCZuupE_2vx2uiNtB2_2UI7warning
FNDA:0,_RNvMNtCse561JCZuupE_2vx2uiNtB2_2UI9separator
FNF:29
FNH:0
DA:18,0
DA:19,0
DA:20,0
DA:23,0
DA:24,0
DA:25,0
DA:27,0
DA:28,0
DA:29,0
DA:30,0
DA:31,0
DA:32,0
DA:33,0
DA:34,0
DA:35,0
DA:36,0
DA:37,0
DA:38,0
DA:39,0
DA:40,0
DA:43,0
DA:44,0
DA:45,0
DA:46,0
DA:47,0
DA:48,0
DA:49,0
DA:50,0
DA:51,0
DA:52,0
DA:53,0
DA:56,0
DA:57,0
DA:58,0
DA:61,0
DA:62,0
DA:63,0
DA:66,0
DA:67,0
DA:68,0
DA:71,0
DA:72,0
DA:73,0
DA:74,0
DA:75,0
DA:78,0
DA:79,0
DA:80,0
DA:81,0
DA:82,0
DA:85,0
DA:86,0
DA:87,0
DA:90,0
DA:91,0
DA:92,0
DA:93,0
DA:94,0
DA:95,0
DA:96,0
DA:100,0
DA:101,0
DA:102,0
DA:103,0
DA:104,0
DA:105,0
DA:107,0
DA:109,0
DA:110,0
DA:111,0
DA:112,0
DA:113,0
DA:114,0
DA:115,0
DA:116,0
DA:117,0
DA:118,0
DA:119,0
DA:120,0
DA:123,0
DA:124,0
DA:127,0
DA:128,0
DA:129,0
DA:130,0
DA:131,0
DA:132,0
DA:133,0
DA:134,0
DA:135,0
DA:136,0
DA:137,0
DA:139,0
DA:141,0
DA:142,0
DA:143,0
DA:144,0
DA:145,0
DA:146,0
DA:147,0
DA:148,0
DA:149,0
DA:150,0
DA:151,0
DA:152,0
DA:153,0
DA:154,0
DA:155,0
DA:156,0
DA:159,0
DA:160,0
DA:164,0
DA:165,0
DA:166,0
DA:167,0
DA:168,0
DA:169,0
DA:170,0
DA:171,0
DA:172,0
DA:173,0
DA:174,0
DA:175,0
DA:176,0
DA:177,0
DA:178,0
DA:179,0
DA:181,0
DA:183,0
DA:184,0
DA:185,0
DA:186,0
DA:187,0
DA:188,0
DA:189,0
DA:190,0
DA:191,0
DA:192,0
DA:193,0
DA:194,0
DA:195,0
DA:196,0
DA:199,0
DA:200,0
DA:203,0
DA:204,0
DA:205,0
DA:206,0
DA:207,0
DA:208,0
DA:209,0
DA:210,0
DA:213,0
DA:214,0
DA:215,0
DA:216,0
DA:219,0
DA:220,0
DA:221,0
DA:222,0
DA:223,0
DA:226,0
DA:227,0
DA:228,0
DA:231,0
DA:233,0
DA:234,0
DA:236,0
DA:237,0
DA:238,0
DA:239,0
DA:241,0
DA:242,0
DA:244,0
DA:246,0
DA:249,0
DA:250,0
DA:251,0
DA:252,0
DA:253,0
DA:254,0
DA:256,0
DA:258,0
DA:261,0
DA:262,0
DA:263,0
DA:264,0
DA:266,0
DA:269,0
DA:270,0
DA:271,0
DA:273,0
DA:276,0
DA:277,0
DA:278,0
DA:279,0
DA:280,0
DA:281,0
DA:282,0
DA:283,0
DA:284,0
DA:285,0
DA:286,0
DA:289,0
DA:290,0
DA:291,0
DA:292,0
DA:293,0
DA:294,0
DA:295,0
DA:296,0
DA:297,0
DA:298,0
DA:299,0
DA:300,0
DA:301,0
DA:302,0
DA:303,0
DA:304,0
DA:305,0
DA:306,0
DA:307,0
DA:308,0
DA:309,0
DA:312,0
DA:313,0
DA:314,0
DA:315,0
DA:316,0
DA:317,0
DA:318,0
DA:319,0
DA:320,0
DA:321,0
DA:322,0
DA:323,0
DA:324,0
DA:325,0
DA:326,0
DA:327,0
DA:330,0
DA:331,0
DA:332,0
DA:333,0
BRF:0
BRH:0
LF:249
LH:0
end_of_record
SF:C:\github\mcpx\src\universal_package_router.rs
FN:210,_RNCNvMNtCs8vv7mWF5ug8_2vx24universal_package_routerNtB4_22UniversalPackageRouter19handle_info_command0B6_
FN:334,_RNvMNtCs8vv7mWF5ug8_2vx24universal_package_routerNtB2_22UniversalPackageRouter11has_manager
FN:43,_RNvMNtCs8vv7mWF5ug8_2vx24universal_package_routerNtB2_22UniversalPackageRouter13route_command
FN:199,_RNvMNtCs8vv7mWF5ug8_2vx24universal_package_routerNtB2_22UniversalPackageRouter19handle_info_command
FN:130,_RNvMNtCs8vv7mWF5ug8_2vx24universal_package_routerNtB2_22UniversalPackageRouter19handle_list_command
FN:339,_RNvMNtCs8vv7mWF5ug8_2vx24universal_package_routerNtB2_22UniversalPackageRouter19parse_package_specs
FN:96,_RNvMNtCs8vv7mWF5ug8_2vx24universal_package_routerNtB2_22UniversalPackageRouter21handle_remove_command
FN:159,_RNvMNtCs8vv7mWF5ug8_2vx24universal_package_routerNtB2_22UniversalPackageRouter21handle_search_command
FN:305,_RNvMNtCs8vv7mWF5ug8_2vx24universal_package_routerNtB2_22UniversalPackageRouter21handle_system_command
FN:113,_RNvMNtCs8vv7mWF5ug8_2vx24universal_package_routerNtB2_22UniversalPackageRouter21handle_update_command
FN:79,_RNvMNtCs8vv7mWF5ug8_2vx24universal_package_routerNtB2_22UniversalPackageRouter22handle_install_command
FN:236,_RNvMNtCs8vv7mWF5ug8_2vx24universal_package_routerNtB2_22UniversalPackageRouter24handle_ecosystem_command
FN:318,_RNvMNtCs8vv7mWF5ug8_2vx24universal_package_routerNtB2_22UniversalPackageRouter29handle_direct_manager_command
FN:15,_RNvMNtCs8vv7mWF5ug8_2vx24universal_package_routerNtB2_22UniversalPackageRouter3new
FN:364,_RNvXs_NtCs8vv7mWF5ug8_2vx24universal_package_routerNtB4_22UniversalPackageRouterNtNtCsaDtq73Zt8sT_4core7default7Default7default
FN:210,_RNCNvMNtCse561JCZuupE_2vx24universal_package_routerNtB4_22UniversalPackageRouter19handle_info_command0B6_
FN:334,_RNvMNtCse561JCZuupE_2vx24universal_package_routerNtB2_22UniversalPackageRouter11has_manager
FN:43,_RNvMNtCse561JCZuupE_2vx24universal_package_routerNtB2_22UniversalPackageRouter13route_command
FN:199,_RNvMNtCse561JCZuupE_2vx24universal_package_routerNtB2_22UniversalPackageRouter19handle_info_command
FN:130,_RNvMNtCse561JCZuupE_2vx24universal_package_routerNtB2_22UniversalPackageRouter19handle_list_command
FN:96,_RNvMNtCse561JCZuupE_2vx24universal_package_routerNtB2_22UniversalPackageRouter21handle_remove_command
FN:159,_RNvMNtCse561JCZuupE_2vx24universal_package_routerNtB2_22UniversalPackageRouter21handle_search_command
FN:305,_RNvMNtCse561JCZuupE_2vx24universal_package_routerNtB2_22UniversalPackageRouter21handle_system_command
FN:113,_RNvMNtCse561JCZuupE_2vx24universal_package_routerNtB2_22UniversalPackageRouter21handle_update_command
FN:79,_RNvMNtCse561JCZuupE_2vx24universal_package_routerNtB2_22UniversalPackageRouter22handle_install_command
FN:236,_RNvMNtCse561JCZuupE_2vx24universal_package_routerNtB2_22UniversalPackageRouter24handle_ecosystem_command
FN:318,_RNvMNtCse561JCZuupE_2vx24universal_package_routerNtB2_22UniversalPackageRouter29handle_direct_manager_command
FN:364,_RNvXs_NtCse561JCZuupE_2vx24universal_package_routerNtB4_22UniversalPackageRouterNtNtCsaDtq73Zt8sT_4core7default7Default7default
FN:374,_RNvNtNtCse561JCZuupE_2vx24universal_package_router5testss_20test_router_creation
FN:381,_RNvNtNtCse561JCZuupE_2vx24universal_package_router5testss_25test_package_spec_parsing
FN:339,_RNvMNtCse561JCZuupE_2vx24universal_package_routerNtB2_22UniversalPackageRouter19parse_package_specs
FN:15,_RNvMNtCse561JCZuupE_2vx24universal_package_routerNtB2_22UniversalPackageRouter3new
FNDA:0,_RNCNvMNtCs8vv7mWF5ug8_2vx24universal_package_routerNtB4_22UniversalPackageRouter19handle_info_command0B6_
FNDA:0,_RNvMNtCs8vv7mWF5ug8_2vx24universal_package_routerNtB2_22UniversalPackageRouter11has_manager
FNDA:0,_RNvMNtCs8vv7mWF5ug8_2vx24universal_package_routerNtB2_22UniversalPackageRouter13route_command
FNDA:0,_RNvMNtCs8vv7mWF5ug8_2vx24universal_package_routerNtB2_22UniversalPackageRouter19handle_info_command
FNDA:0,_RNvMNtCs8vv7mWF5ug8_2vx24universal_package_routerNtB2_22UniversalPackageRouter19handle_list_command
FNDA:0,_RNvMNtCs8vv7mWF5ug8_2vx24universal_package_routerNtB2_22UniversalPackageRouter19parse_package_specs
FNDA:0,_RNvMNtCs8vv7mWF5ug8_2vx24universal_package_routerNtB2_22UniversalPackageRouter21handle_remove_command
FNDA:0,_RNvMNtCs8vv7mWF5ug8_2vx24universal_package_routerNtB2_22UniversalPackageRouter21handle_search_command
FNDA:0,_RNvMNtCs8vv7mWF5ug8_2vx24universal_package_routerNtB2_22UniversalPackageRouter21handle_system_command
FNDA:0,_RNvMNtCs8vv7mWF5ug8_2vx24universal_package_routerNtB2_22UniversalPackageRouter21handle_update_command
FNDA:0,_RNvMNtCs8vv7mWF5ug8_2vx24universal_package_routerNtB2_22UniversalPackageRouter22handle_install_command
FNDA:0,_RNvMNtCs8vv7mWF5ug8_2vx24universal_package_routerNtB2_22UniversalPackageRouter24handle_ecosystem_command
FNDA:0,_RNvMNtCs8vv7mWF5ug8_2vx24universal_package_routerNtB2_22UniversalPackageRouter29handle_direct_manager_command
FNDA:0,_RNvMNtCs8vv7mWF5ug8_2vx24universal_package_routerNtB2_22UniversalPackageRouter3new
FNDA:0,_RNvXs_NtCs8vv7mWF5ug8_2vx24universal_package_routerNtB4_22UniversalPackageRouterNtNtCsaDtq73Zt8sT_4core7default7Default7default
FNDA:0,_RNCNvMNtCse561JCZuupE_2vx24universal_package_routerNtB4_22UniversalPackageRouter19handle_info_command0B6_
FNDA:0,_RNvMNtCse561JCZuupE_2vx24universal_package_routerNtB2_22UniversalPackageRouter11has_manager
FNDA:0,_RNvMNtCse561JCZuupE_2vx24universal_package_routerNtB2_22UniversalPackageRouter13route_command
FNDA:0,_RNvMNtCse561JCZuupE_2vx24universal_package_routerNtB2_22UniversalPackageRouter19handle_info_command
FNDA:0,_RNvMNtCse561JCZuupE_2vx24universal_package_routerNtB2_22UniversalPackageRouter19handle_list_command
FNDA:0,_RNvMNtCse561JCZuupE_2vx24universal_package_routerNtB2_22UniversalPackageRouter21handle_remove_command
FNDA:0,_RNvMNtCse561JCZuupE_2vx24universal_package_routerNtB2_22UniversalPackageRouter21handle_search_command
FNDA:0,_RNvMNtCse561JCZuupE_2vx24universal_package_routerNtB2_22UniversalPackageRouter21handle_system_command
FNDA:0,_RNvMNtCse561JCZuupE_2vx24universal_package_routerNtB2_22UniversalPackageRouter21handle_update_command
FNDA:0,_RNvMNtCse561JCZuupE_2vx24universal_package_routerNtB2_22UniversalPackageRouter22handle_install_command
FNDA:0,_RNvMNtCse561JCZuupE_2vx24universal_package_routerNtB2_22UniversalPackageRouter24handle_ecosystem_command
FNDA:0,_RNvMNtCse561JCZuupE_2vx24universal_package_routerNtB2_22UniversalPackageRouter29handle_direct_manager_command
FNDA:0,_RNvXs_NtCse561JCZuupE_2vx24universal_package_routerNtB4_22UniversalPackageRouterNtNtCsaDtq73Zt8sT_4core7default7Default7default
FNDA:1,_RNvNtNtCse561JCZuupE_2vx24universal_package_router5testss_20test_router_creation
FNDA:1,_RNvNtNtCse561JCZuupE_2vx24universal_package_router5testss_25test_package_spec_parsing
FNDA:1,_RNvMNtCse561JCZuupE_2vx24universal_package_routerNtB2_22UniversalPackageRouter19parse_package_specs
FNDA:2,_RNvMNtCse561JCZuupE_2vx24universal_package_routerNtB2_22UniversalPackageRouter3new
FNF:17
FNH:4
DA:15,2
DA:16,2
DA:17,2
DA:18,2
DA:19,2
DA:20,2
DA:21,2
DA:22,2
DA:23,2
DA:24,2
DA:25,2
DA:26,2
DA:27,2
DA:28,2
DA:29,2
DA:30,2
DA:31,2
DA:32,2
DA:33,2
DA:34,2
DA:35,2
DA:36,2
DA:37,2
DA:38,2
DA:39,2
DA:40,2
DA:43,0
DA:44,0
DA:45,0
DA:46,0
DA:47,0
DA:48,0
DA:49,0
DA:50,0
DA:51,0
DA:52,0
DA:53,0
DA:54,0
DA:55,0
DA:56,0
DA:57,0
DA:58,0
DA:61,0
DA:62,0
DA:64,0
DA:65,0
DA:66,0
DA:67,0
DA:68,0
DA:69,0
DA:70,0
DA:74,0
DA:76,0
DA:79,0
DA:80,0
DA:82,0
DA:83,0
DA:84,0
DA:85,0
DA:87,0
DA:88,0
DA:89,0
DA:92,0
DA:93,0
DA:96,0
DA:97,0
DA:99,0
DA:100,0
DA:101,0
DA:102,0
DA:104,0
DA:105,0
DA:106,0
DA:109,0
DA:110,0
DA:113,0
DA:114,0
DA:116,0
DA:117,0
DA:118,0
DA:119,0
DA:121,0
DA:122,0
DA:123,0
DA:126,0
DA:127,0
DA:130,0
DA:131,0
DA:133,0
DA:134,0
DA:136,0
DA:137,0
DA:138,0
DA:139,0
DA:140,0
DA:141,0
DA:142,0
DA:143,0
DA:144,0
DA:149,0
DA:150,0
DA:151,0
DA:152,0
DA:155,0
DA:156,0
DA:159,0
DA:160,0
DA:161,0
DA:162,0
DA:163,0
DA:164,0
DA:165,0
DA:167,0
DA:168,0
DA:170,0
DA:171,0
DA:172,0
DA:173,0
DA:174,0
DA:175,0
DA:176,0
DA:177,0
DA:178,0
DA:180,0
DA:181,0
DA:182,0
DA:183,0
DA:185,0
DA:186,0
DA:187,0
DA:190,0
DA:191,0
DA:192,0
DA:195,0
DA:196,0
DA:199,0
DA:200,0
DA:201,0
DA:202,0
DA:203,0
DA:204,0
DA:205,0
DA:207,0
DA:208,0
DA:210,0
DA:211,0
DA:212,0
DA:213,0
DA:214,0
DA:215,0
DA:216,0
DA:217,0
DA:218,0
DA:219,0
DA:220,0
DA:221,0
DA:222,0
DA:223,0
DA:224,0
DA:225,0
DA:227,0
DA:228,0
DA:229,0
DA:232,0
DA:233,0
DA:236,0
DA:237,0
DA:238,0
DA:239,0
DA:240,0
DA:241,0
DA:242,0
DA:243,0
DA:244,0
DA:245,0
DA:246,0
DA:247,0
DA:248,0
DA:249,0
DA:250,0
DA:251,0
DA:252,0
DA:253,0
DA:254,0
DA:255,0
DA:256,0
DA:258,0
DA:259,0
DA:260,0
DA:261,0
DA:263,0
DA:264,0
DA:265,0
DA:266,0
DA:268,0
DA:269,0
DA:270,0
DA:271,0
DA:272,0
DA:274,0
DA:275,0
DA:276,0
DA:277,0
DA:278,0
DA:279,0
DA:280,0
DA:284,0
DA:285,0
DA:286,0
DA:287,0
DA:288,0
DA:292,0
DA:293,0
DA:294,0
DA:295,0
DA:298,0
DA:301,0
DA:302,0
DA:305,0
DA:306,0
DA:307,0
DA:308,0
DA:309,0
DA:311,0
DA:314,0
DA:315,0
DA:318,0
DA:319,0
DA:322,0
DA:323,0
DA:324,0
DA:326,0
DA:327,0
DA:328,0
DA:329,0
DA:331,0
DA:334,0
DA:335,0
DA:336,0
DA:339,1
DA:340,1
DA:342,3
DA:343,2
DA:344,1
DA:345,1
DA:347,1
DA:350,2
DA:351,2
DA:352,2
DA:353,2
DA:354,2
DA:355,2
DA:356,2
DA:359,1
DA:360,1
DA:364,0
DA:365,0
DA:366,0
DA:374,1
DA:375,1
DA:376,1
DA:377,1
DA:378,1
DA:381,1
DA:382,1
DA:383,1
DA:384,1
DA:385,1
DA:386,1
DA:387,1
DA:388,1
DA:389,1
DA:390,1
DA:391,1
DA:392,1
DA:393,1
BRF:0
BRH:0
LF:277
LH:60
end_of_record
SF:C:\github\mcpx\src\venv.rs
FN:40,_RNCNvMNtCs8vv7mWF5ug8_2vx4venvNtB4_11VenvManager3new0B6_
FN:120,_RNvMNtCs8vv7mWF5ug8_2vx4venvNtB2_11VenvManager10deactivate
FN:193,_RNvMNtCs8vv7mWF5ug8_2vx4venvNtB2_11VenvManager16load_venv_config
FN:181,_RNvMNtCs8vv7mWF5ug8_2vx4venvNtB2_11VenvManager16save_venv_config
FN:172,_RNvMNtCs8vv7mWF5ug8_2vx4venvNtB2_11VenvManager21install_tool_for_venv
FN:31,_RNvMNtCs8vv7mWF5ug8_2vx4venvNtB2_11VenvManager3new
FN:130,_RNvMNtCs8vv7mWF5ug8_2vx4venvNtB2_11VenvManager4list
FN:56,_RNvMNtCs8vv7mWF5ug8_2vx4venvNtB2_11VenvManager6create
FN:149,_RNvMNtCs8vv7mWF5ug8_2vx4venvNtB2_11VenvManager6remove
FN:162,_RNvMNtCs8vv7mWF5ug8_2vx4venvNtB2_11VenvManager7current
FN:94,_RNvMNtCs8vv7mWF5ug8_2vx4venvNtB2_11VenvManager8activate
FN:167,_RNvMNtCs8vv7mWF5ug8_2vx4venvNtB2_11VenvManager9is_active
FN:210,_RNvXs_NtCs8vv7mWF5ug8_2vx4venvNtB4_11VenvManagerNtNtCsaDtq73Zt8sT_4core7default7Default7default
FN:120,_RNvMNtCse561JCZuupE_2vx4venvNtB2_11VenvManager10deactivate
FN:193,_RNvMNtCse561JCZuupE_2vx4venvNtB2_11VenvManager16load_venv_config
FN:181,_RNvMNtCse561JCZuupE_2vx4venvNtB2_11VenvManager16save_venv_config
FN:172,_RNvMNtCse561JCZuupE_2vx4venvNtB2_11VenvManager21install_tool_for_venv
FN:130,_RNvMNtCse561JCZuupE_2vx4venvNtB2_11VenvManager4list
FN:56,_RNvMNtCse561JCZuupE_2vx4venvNtB2_11VenvManager6create
FN:149,_RNvMNtCse561JCZuupE_2vx4venvNtB2_11VenvManager6remove
FN:162,_RNvMNtCse561JCZuupE_2vx4venvNtB2_11VenvManager7current
FN:94,_RNvMNtCse561JCZuupE_2vx4venvNtB2_11VenvManager8activate
FN:210,_RNvXs_NtCse561JCZuupE_2vx4venvNtB4_11VenvManagerNtNtCsaDtq73Zt8sT_4core7default7Default7default
FN:226,_RNvNtNtCse561JCZuupE_2vx4venv5testss_17test_current_venv
FN:220,_RNvNtNtCse561JCZuupE_2vx4venv5testss_26test_venv_manager_creation
FN:40,_RNCNvMNtCse561JCZuupE_2vx4venvNtB4_11VenvManager3new0B6_
FN:31,_RNvMNtCse561JCZuupE_2vx4venvNtB2_11VenvManager3new
FN:167,_RNvMNtCse561JCZuupE_2vx4venvNtB2_11VenvManager9is_active
FNDA:0,_RNCNvMNtCs8vv7mWF5ug8_2vx4venvNtB4_11VenvManager3new0B6_
FNDA:0,_RNvMNtCs8vv7mWF5ug8_2vx4venvNtB2_11VenvManager10deactivate
FNDA:0,_RNvMNtCs8vv7mWF5ug8_2vx4venvNtB2_11VenvManager16load_venv_config
FNDA:0,_RNvMNtCs8vv7mWF5ug8_2vx4venvNtB2_11VenvManager16save_venv_config
FNDA:0,_RNvMNtCs8vv7mWF5ug8_2vx4venvNtB2_11VenvManager21install_tool_for_venv
FNDA:0,_RNvMNtCs8vv7mWF5ug8_2vx4venvNtB2_11VenvManager3new
FNDA:0,_RNvMNtCs8vv7mWF5ug8_2vx4venvNtB2_11VenvManager4list
FNDA:0,_RNvMNtCs8vv7mWF5ug8_2vx4venvNtB2_11VenvManager6create
FNDA:0,_RNvMNtCs8vv7mWF5ug8_2vx4venvNtB2_11VenvManager6remove
FNDA:0,_RNvMNtCs8vv7mWF5ug8_2vx4venvNtB2_11VenvManager7current
FNDA:0,_RNvMNtCs8vv7mWF5ug8_2vx4venvNtB2_11VenvManager8activate
FNDA:0,_RNvMNtCs8vv7mWF5ug8_2vx4venvNtB2_11VenvManager9is_active
FNDA:0,_RNvXs_NtCs8vv7mWF5ug8_2vx4venvNtB4_11VenvManagerNtNtCsaDtq73Zt8sT_4core7default7Default7default
FNDA:0,_RNvMNtCse561JCZuupE_2vx4venvNtB2_11VenvManager10deactivate
FNDA:0,_RNvMNtCse561JCZuupE_2vx4venvNtB2_11VenvManager16load_venv_config
FNDA:0,_RNvMNtCse561JCZuupE_2vx4venvNtB2_11VenvManager16save_venv_config
FNDA:0,_RNvMNtCse561JCZuupE_2vx4venvNtB2_11VenvManager21install_tool_for_venv
FNDA:0,_RNvMNtCse561JCZuupE_2vx4venvNtB2_11VenvManager4list
FNDA:0,_RNvMNtCse561JCZuupE_2vx4venvNtB2_11VenvManager6create
FNDA:0,_RNvMNtCse561JCZuupE_2vx4venvNtB2_11VenvManager6remove
FNDA:0,_RNvMNtCse561JCZuupE_2vx4venvNtB2_11VenvManager7current
FNDA:0,_RNvMNtCse561JCZuupE_2vx4venvNtB2_11VenvManager8activate
FNDA:0,_RNvXs_NtCse561JCZuupE_2vx4venvNtB4_11VenvManagerNtNtCsaDtq73Zt8sT_4core7default7Default7default
FNDA:1,_RNvNtNtCse561JCZuupE_2vx4venv5testss_17test_current_venv
FNDA:1,_RNvNtNtCse561JCZuupE_2vx4venv5testss_26test_venv_manager_creation
FNDA:0,_RNCNvMNtCse561JCZuupE_2vx4venvNtB4_11VenvManager3new0B6_
FNDA:1,_RNvMNtCse561JCZuupE_2vx4venvNtB2_11VenvManager3new
FNDA:1,_RNvMNtCse561JCZuupE_2vx4venvNtB2_11VenvManager9is_active
FNF:15
FNH:4
DA:31,1
DA:32,1
DA:33,1
DA:36,1
DA:37,1
DA:39,0
DA:40,0
DA:41,0
DA:42,0
DA:46,1
DA:48,1
DA:49,1
DA:50,1
DA:51,1
DA:52,1
DA:53,1
DA:56,0
DA:57,0
DA:58,0
DA:59,0
DA:60,0
DA:61,0
DA:62,0
DA:63,0
DA:64,0
DA:65,0
DA:66,0
DA:69,0
DA:70,0
DA:71,0
DA:72,0
DA:74,0
DA:75,0
DA:76,0
DA:77,0
DA:78,0
DA:79,0
DA:80,0
DA:81,0
DA:82,0
DA:85,0
DA:86,0
DA:89,0
DA:90,0
DA:91,0
DA:94,0
DA:95,0
DA:98,0
DA:99,0
DA:100,0
DA:101,0
DA:104,0
DA:105,0
DA:106,0
DA:109,0
DA:110,0
DA:111,0
DA:114,0
DA:115,0
DA:116,0
DA:117,0
DA:120,0
DA:121,0
DA:122,0
DA:123,0
DA:124,0
DA:125,0
DA:126,0
DA:127,0
DA:130,0
DA:131,0
DA:132,0
DA:133,0
DA:134,0
DA:135,0
DA:136,0
DA:137,0
DA:138,0
DA:139,0
DA:140,0
DA:142,0
DA:144,0
DA:145,0
DA:146,0
DA:149,0
DA:150,0
DA:151,0
DA:152,0
DA:153,0
DA:154,0
DA:155,0
DA:156,0
DA:157,0
DA:158,0
DA:159,0
DA:162,0
DA:163,0
DA:164,0
DA:167,1
DA:168,1
DA:169,1
DA:172,0
DA:173,0
DA:174,0
DA:175,0
DA:176,0
DA:177,0
DA:178,0
DA:181,0
DA:182,0
DA:183,0
DA:184,0
DA:185,0
DA:186,0
DA:187,0
DA:188,0
DA:189,0
DA:190,0
DA:193,0
DA:194,0
DA:195,0
DA:196,0
DA:197,0
DA:198,0
DA:199,0
DA:200,0
DA:201,0
DA:203,0
DA:204,0
DA:205,0
DA:206,0
DA:210,0
DA:211,0
DA:212,0
DA:220,1
DA:221,1
DA:222,1
DA:223,1
DA:226,1
DA:227,1
DA:228,1
DA:229,1
BRF:0
BRH:0
LF:143
LH:23
end_of_record
SF:C:\github\mcpx\src\version.rs
FN:17,_RNvMNtCs8vv7mWF5ug8_2vx7versionNtB2_7Version5parse
FN:46,_RNvMNtCs8vv7mWF5ug8_2vx7versionNtB2_7Version9as_string
FN:88,_RNvMs0_NtCs8vv7mWF5ug8_2vx7versionNtB5_14VersionManager18get_latest_version
FN:64,_RNvMs0_NtCs8vv7mWF5ug8_2vx7versionNtB5_14VersionManager21get_installed_version
FN:99,_RNvMs0_NtCs8vv7mWF5ug8_2vx7versionNtB5_14VersionManager21get_uv_latest_version
FN:115,_RNvMs0_NtCs8vv7mWF5ug8_2vx7versionNtB5_14VersionManager23get_node_latest_version
FN:136,_RNvMs0_NtCs8vv7mWF5ug8_2vx7versionNtB5_14VersionManager27extract_version_from_output
FN:55,_RNvXs_NtCs8vv7mWF5ug8_2vx7versionNtB4_7VersionNtNtCsaDtq73Zt8sT_4core3fmt7Display3fmt
FN:110,_RNCNCNvMs0_NtCse561JCZuupE_2vx7versionNtB9_14VersionManager21get_uv_latest_version00Bb_
FN:126,_RNCNCNvMs0_NtCse561JCZuupE_2vx7versionNtB9_14VersionManager23get_node_latest_version00Bb_
FN:131,_RNCNCNvMs0_NtCse561JCZuupE_2vx7versionNtB9_14VersionManager23get_node_latest_version0s0_0Bb_
FN:127,_RNCNCNvMs0_NtCse561JCZuupE_2vx7versionNtB9_14VersionManager23get_node_latest_version0s_0Bb_
FN:88,_RNCNvMs0_NtCse561JCZuupE_2vx7versionNtB7_14VersionManager18get_latest_version0B9_
FN:99,_RNCNvMs0_NtCse561JCZuupE_2vx7versionNtB7_14VersionManager21get_uv_latest_version0B9_
FN:115,_RNCNvMs0_NtCse561JCZuupE_2vx7versionNtB7_14VersionManager23get_node_latest_version0B9_
FN:17,_RNvMNtCse561JCZuupE_2vx7versionNtB2_7Version5parse
FN:46,_RNvMNtCse561JCZuupE_2vx7versionNtB2_7Version9as_string
FN:88,_RNvMs0_NtCse561JCZuupE_2vx7versionNtB5_14VersionManager18get_latest_version
FN:64,_RNvMs0_NtCse561JCZuupE_2vx7versionNtB5_14VersionManager21get_installed_version
FN:99,_RNvMs0_NtCse561JCZuupE_2vx7versionNtB5_14VersionManager21get_uv_latest_version
FN:115,_RNvMs0_NtCse561JCZuupE_2vx7versionNtB5_14VersionManager23get_node_latest_version
FN:136,_RNvMs0_NtCse561JCZuupE_2vx7versionNtB5_14VersionManager27extract_version_from_output
FN:55,_RNvXs_NtCse561JCZuupE_2vx7versionNtB4_7VersionNtNtCsaDtq73Zt8sT_4core3fmt7Display3fmt
FN:110,_RNCNCNvMs0_NtCs8vv7mWF5ug8_2vx7versionNtB9_14VersionManager21get_uv_latest_version00CsgEqbR8KZSOZ_2vx
FN:126,_RNCNCNvMs0_NtCs8vv7mWF5ug8_2vx7versionNtB9_14VersionManager23get_node_latest_version00CsgEqbR8KZSOZ_2vx
FN:131,_RNCNCNvMs0_NtCs8vv7mWF5ug8_2vx7versionNtB9_14VersionManager23get_node_latest_version0s0_0CsgEqbR8KZSOZ_2vx
FN:127,_RNCNCNvMs0_NtCs8vv7mWF5ug8_2vx7versionNtB9_14VersionManager23get_node_latest_version0s_0CsgEqbR8KZSOZ_2vx
FN:88,_RNCNvMs0_NtCs8vv7mWF5ug8_2vx7versionNtB7_14VersionManager18get_latest_version0CsgEqbR8KZSOZ_2vx
FN:99,_RNCNvMs0_NtCs8vv7mWF5ug8_2vx7versionNtB7_14VersionManager21get_uv_latest_version0CsgEqbR8KZSOZ_2vx
FN:115,_RNCNvMs0_NtCs8vv7mWF5ug8_2vx7versionNtB7_14VersionManager23get_node_latest_version0CsgEqbR8KZSOZ_2vx
FNDA:0,_RNvMNtCs8vv7mWF5ug8_2vx7versionNtB2_7Version5parse
FNDA:0,_RNvMNtCs8vv7mWF5ug8_2vx7versionNtB2_7Version9as_string
FNDA:0,_RNvMs0_NtCs8vv7mWF5ug8_2vx7versionNtB5_14VersionManager18get_latest_version
FNDA:0,_RNvMs0_NtCs8vv7mWF5ug8_2vx7versionNtB5_14VersionManager21get_installed_version
FNDA:0,_RNvMs0_NtCs8vv7mWF5ug8_2vx7versionNtB5_14VersionManager21get_uv_latest_version
FNDA:0,_RNvMs0_NtCs8vv7mWF5ug8_2vx7versionNtB5_14VersionManager23get_node_latest_version
FNDA:0,_RNvMs0_NtCs8vv7mWF5ug8_2vx7versionNtB5_14VersionManager27extract_version_from_output
FNDA:0,_RNvXs_NtCs8vv7mWF5ug8_2vx7versionNtB4_7VersionNtNtCsaDtq73Zt8sT_4core3fmt7Display3fmt
FNDA:0,_RNCNCNvMs0_NtCse561JCZuupE_2vx7versionNtB9_14VersionManager21get_uv_latest_version00Bb_
FNDA:0,_RNCNCNvMs0_NtCse561JCZuupE_2vx7versionNtB9_14VersionManager23get_node_latest_version00Bb_
FNDA:0,_RNCNCNvMs0_NtCse561JCZuupE_2vx7versionNtB9_14VersionManager23get_node_latest_version0s0_0Bb_
FNDA:0,_RNCNCNvMs0_NtCse561JCZuupE_2vx7versionNtB9_14VersionManager23get_node_latest_version0s_0Bb_
FNDA:0,_RNCNvMs0_NtCse561JCZuupE_2vx7versionNtB7_14VersionManager18get_latest_version0B9_
FNDA:0,_RNCNvMs0_NtCse561JCZuupE_2vx7versionNtB7_14VersionManager21get_uv_latest_version0B9_
FNDA:0,_RNCNvMs0_NtCse561JCZuupE_2vx7versionNtB7_14VersionManager23get_node_latest_version0B9_
FNDA:0,_RNvMNtCse561JCZuupE_2vx7versionNtB2_7Version5parse
FNDA:0,_RNvMNtCse561JCZuupE_2vx7versionNtB2_7Version9as_string
FNDA:0,_RNvMs0_NtCse561JCZuupE_2vx7versionNtB5_14VersionManager18get_latest_version
FNDA:0,_RNvMs0_NtCse561JCZuupE_2vx7versionNtB5_14VersionManager21get_installed_version
FNDA:0,_RNvMs0_NtCse561JCZuupE_2vx7versionNtB5_14VersionManager21get_uv_latest_version
FNDA:0,_RNvMs0_NtCse561JCZuupE_2vx7versionNtB5_14VersionManager23get_node_latest_version
FNDA:0,_RNvMs0_NtCse561JCZuupE_2vx7versionNtB5_14VersionManager27extract_version_from_output
FNDA:0,_RNvXs_NtCse561JCZuupE_2vx7versionNtB4_7VersionNtNtCsaDtq73Zt8sT_4core3fmt7Display3fmt
FNDA:0,_RNCNCNvMs0_NtCs8vv7mWF5ug8_2vx7versionNtB9_14VersionManager21get_uv_latest_version00CsgEqbR8KZSOZ_2vx
FNDA:0,_RNCNCNvMs0_NtCs8vv7mWF5ug8_2vx7versionNtB9_14VersionManager23get_node_latest_version00CsgEqbR8KZSOZ_2vx
FNDA:0,_RNCNCNvMs0_NtCs8vv7mWF5ug8_2vx7versionNtB9_14VersionManager23get_node_latest_version0s0_0CsgEqbR8KZSOZ_2vx
FNDA:0,_RNCNCNvMs0_NtCs8vv7mWF5ug8_2vx7versionNtB9_14VersionManager23get_node_latest_version0s_0CsgEqbR8KZSOZ_2vx
FNDA:0,_RNCNvMs0_NtCs8vv7mWF5ug8_2vx7versionNtB7_14VersionManager18get_latest_version0CsgEqbR8KZSOZ_2vx
FNDA:0,_RNCNvMs0_NtCs8vv7mWF5ug8_2vx7versionNtB7_14VersionManager21get_uv_latest_version0CsgEqbR8KZSOZ_2vx
FNDA:0,_RNCNvMs0_NtCs8vv7mWF5ug8_2vx7versionNtB7_14VersionManager23get_node_latest_version0CsgEqbR8KZSOZ_2vx
FNF:15
FNH:0
DA:17,0
DA:18,0
DA:19,0
DA:20,0
DA:21,0
DA:22,0
DA:23,0
DA:25,0
DA:26,0
DA:29,0
DA:30,0
DA:31,0
DA:32,0
DA:33,0
DA:35,0
DA:38,0
DA:39,0
DA:40,0
DA:41,0
DA:42,0
DA:43,0
DA:44,0
DA:46,0
DA:47,0
DA:48,0
DA:49,0
DA:51,0
DA:55,0
DA:56,0
DA:57,0
DA:64,0
DA:65,0
DA:66,0
DA:67,0
DA:68,0
DA:71,0
DA:73,0
DA:74,0
DA:75,0
DA:76,0
DA:77,0
DA:78,0
DA:81,0
DA:82,0
DA:84,0
DA:85,0
DA:88,0
DA:89,0
DA:90,0
DA:91,0
DA:92,0
DA:93,0
DA:94,0
DA:95,0
DA:97,0
DA:99,0
DA:100,0
DA:101,0
DA:102,0
DA:103,0
DA:104,0
DA:105,0
DA:107,0
DA:108,0
DA:109,0
DA:110,0
DA:112,0
DA:113,0
DA:115,0
DA:116,0
DA:117,0
DA:118,0
DA:119,0
DA:120,0
DA:121,0
DA:123,0
DA:124,0
DA:125,0
DA:126,0
DA:127,0
DA:129,0
DA:130,0
DA:131,0
DA:133,0
DA:134,0
DA:136,0
DA:137,0
DA:138,0
DA:139,0
DA:140,0
DA:141,0
DA:143,0
DA:144,0
DA:145,0
DA:146,0
DA:147,0
DA:148,0
DA:149,0
DA:150,0
DA:153,0
DA:154,0
DA:155,0
DA:156,0
DA:157,0
BRF:0
BRH:0
LF:111
LH:0
end_of_record